
/proj_sw/user_dev/jnie/budabackend/build/src/firmware/riscv/targets/erisc_app/out/erisc_app.elf:     file format elf32-littleriscv
/proj_sw/user_dev/jnie/budabackend/build/src/firmware/riscv/targets/erisc_app/out/erisc_app.elf
architecture: riscv:rv32, flags 0x00000012:
EXEC_P, HAS_SYMS
start address 0x00009040

Program Header:
    LOAD off    0x000000c0 vaddr 0x00009040 paddr 0x00009040 align 2**4
         filesz 0x000060c8 memsz 0x000060c8 flags r-x
    LOAD off    0x00000000 vaddr 0x0000f400 paddr 0x0000f400 align 2**4
         filesz 0x00000000 memsz 0x00001ac8 flags rw-
    LOAD off    0x00006190 vaddr 0xffc00000 paddr 0x00018000 align 2**4
         filesz 0x00001658 memsz 0x00001658 flags r-x
    LOAD off    0x00000000 vaddr 0xffb00000 paddr 0xffb00000 align 2**4
         filesz 0x00000000 memsz 0x00000404 flags rw-

Sections:
Idx Name          Size      VMA       LMA       File off  Algn
  0 erisc_l1_code 0000087c  00009040  00009040  000000c0  2**1
                  CONTENTS, ALLOC, LOAD, READONLY, CODE
  1 code_l1       0000584c  000098bc  000098bc  0000093c  2**1
                  CONTENTS, ALLOC, LOAD, READONLY, CODE
  2 .text         00001658  ffc00000  00018000  00006190  2**2
                  CONTENTS, ALLOC, LOAD, READONLY, CODE
  3 .sbss         00000038  0000f400  0000f400  000061a0  2**3
                  ALLOC
  4 .bss          00000080  0000f440  0000f440  000061a0  2**5
                  ALLOC
  5 .stack        00000404  ffb00000  ffb00000  000077f0  2**0
                  ALLOC
  6 data_noinit   00001a08  0000f4c0  0000f4c0  000061a0  2**5
                  ALLOC
  7 .comment      00000012  00000000  00000000  000077e8  2**0
                  CONTENTS, READONLY
  8 .riscv.attributes 00000026  00000000  00000000  000077fa  2**0
                  CONTENTS, READONLY
  9 .debug_aranges 00000098  00000000  00000000  00007820  2**0
                  CONTENTS, READONLY, DEBUGGING, OCTETS
 10 .debug_info   000232c1  00000000  00000000  000078b8  2**0
                  CONTENTS, READONLY, DEBUGGING, OCTETS
 11 .debug_abbrev 000020d4  00000000  00000000  0002ab79  2**0
                  CONTENTS, READONLY, DEBUGGING, OCTETS
 12 .debug_line   0000cee3  00000000  00000000  0002cc4d  2**0
                  CONTENTS, READONLY, DEBUGGING, OCTETS
 13 .debug_str    0000a971  00000000  00000000  00039b30  2**0
                  CONTENTS, READONLY, DEBUGGING, OCTETS
 14 .debug_loc    0001171c  00000000  00000000  000444a1  2**0
                  CONTENTS, READONLY, DEBUGGING, OCTETS
 15 .debug_ranges 000043a8  00000000  00000000  00055bbd  2**0
                  CONTENTS, READONLY, DEBUGGING, OCTETS
SYMBOL TABLE:
00009040 l    d  erisc_l1_code	00000000 erisc_l1_code
000098bc l    d  code_l1	00000000 code_l1
ffc00000 l    d  .text	00000000 .text
0000f400 l    d  .sbss	00000000 .sbss
0000f440 l    d  .bss	00000000 .bss
ffb00000 l    d  .stack	00000000 .stack
0000f4c0 l    d  data_noinit	00000000 data_noinit
00000000 l    d  .comment	00000000 .comment
00000000 l    d  .riscv.attributes	00000000 .riscv.attributes
00000000 l    d  .debug_aranges	00000000 .debug_aranges
00000000 l    d  .debug_info	00000000 .debug_info
00000000 l    d  .debug_abbrev	00000000 .debug_abbrev
00000000 l    d  .debug_line	00000000 .debug_line
00000000 l    d  .debug_str	00000000 .debug_str
00000000 l    d  .debug_loc	00000000 .debug_loc
00000000 l    d  .debug_ranges	00000000 .debug_ranges
00000000 l    df *ABS*	00000000 
ffc00000 l     F .text	00000024 ncrisc_noc_reads_flushed(unsigned long, unsigned long)
ffc00000 l     F .text	00000024 ncrisc_noc_nonposted_writes_flushed(unsigned long, unsigned long)
ffc00024 l     F .text	00000024 ncrisc_noc_fast_read_ok(unsigned long, unsigned long)
ffc00024 l     F .text	00000024 ncrisc_noc_fast_write_ok(unsigned long, unsigned long)
000098bc l     F code_l1	00000074 init_erisc_streams(void*, unsigned long)
00009930 l     F code_l1	0000005c risc_context_switch()
0000f434 l     O .sbss	00000004 rtos_context_switch_ptr
ffc00048 l     F .text	0000003c get_operand_stream_id(int)
ffc00084 l     F .text	00000038 stream_id_to_operand(unsigned long)
ffc000bc l     F .text	00000048 stride_iter_matches(dram_io_state_t volatile* rvtt_l1_ptr, unsigned long&, unsigned long&, unsigned long&)
ffc00104 l     F .text	000000c4 read_phase_active(unsigned long, dram_input_stream_state_t*, unsigned long&, unsigned long&)
ffc001c8 l     F .text	00000128 push_readdata_to_stream(dram_input_stream_state_t*, unsigned long, bool, unsigned long, unsigned long)
0000998c l     F code_l1	000001d0 dram_input_stream_issue_scatter_read(unsigned long, unsigned long, unsigned long, unsigned long, unsigned long, unsigned long, tt_uint64_t volatile* rvtt_l1_ptr, unsigned long&, unsigned long&, unsigned long&, unsigned long)
0000f404 l     O .sbss	00000008 noc_xy_local_addr
ffc002f0 l     F .text	00000034 stream_dram_write_ok(unsigned long)
ffc002f0 l     F .text	00000034 stream_dram_writes_sent(unsigned long)
ffc00324 l     F .text	00000058 bool stream_get_push_flushed<true, false>(unsigned long, unsigned long) [clone .constprop.0]
ffc0037c l     F .text	00000070 bool stream_get_push_flushed<false, false>(unsigned long, unsigned long) [clone .constprop.0]
ffc003ec l     F .text	00000058 eth_send_packet(unsigned long, unsigned long, unsigned long, unsigned long) [clone .constprop.0]
ffc00444 l     F .text	00000068 clear_scatter_offsets(unsigned long&, dram_q_state_t* rvtt_l1_ptr, dram_io_scatter_state_t* rvtt_l1_ptr, epoch_stream_dram_io_info_t* rvtt_l1_ptr, unsigned long, unsigned long&, unsigned long) [clone .constprop.0]
ffc004ac l     F .text	000002fc poll_dram_ptrs(void*, unsigned long&, dram_q_state_t* rvtt_l1_ptr, bool&, bool&) [clone .constprop.0]
00009b5c l     F code_l1	000002f4 risc_stream_resart_check(unsigned long&, unsigned long&, active_stream_info_t*) [clone .constprop.0]
00009e50 l     F code_l1	00000084 ncrisc_noc_fast_read_l1(unsigned long, unsigned long, unsigned long long, unsigned long, unsigned long, unsigned long) [clone .constprop.0]
00009ed4 l     F code_l1	0000001c ncrisc_noc_fast_read_any_len_l1(unsigned long, unsigned long, unsigned long long, unsigned long, unsigned long, unsigned long) [clone .constprop.0]
00009ef0 l     F code_l1	00000084 ncrisc_noc_fast_write_l1(unsigned long, unsigned long, unsigned long, unsigned long long, unsigned long, unsigned long, bool, bool, unsigned long, unsigned long) [clone .constprop.0]
00009f74 l     F code_l1	000000c0 replicate_l1(unsigned long, unsigned long, unsigned long long, unsigned long, unsigned long, unsigned long) [clone .constprop.0]
0000a034 l     F code_l1	000011a8 risc_dram_stream_handler_init_l1(void*, unsigned long volatile&, unsigned long volatile&, unsigned long&, unsigned long&, unsigned long&, unsigned long&, unsigned long&, dram_q_state_t* rvtt_l1_ptr, dram_input_stream_state_t*, dram_output_stream_state_t*, active_stream_info_t* rvtt_l1_ptr, epoch_stream_info_t* rvtt_l1_ptr* rvtt_l1_ptr, active_stream_info_t** rvtt_l1_ptr) [clone .constprop.0]
0000f42a l     O .sbss	00000001 loading_noc
0000f428 l     O .sbss	00000002 my_y
0000f42c l     O .sbss	00000002 my_x
0000b1dc l     F code_l1	00000408 risc_dram_stream_handler_epilogue_l1(void*, unsigned long&, unsigned long&, unsigned long&, unsigned long&, unsigned long&, dram_q_state_t* rvtt_l1_ptr, dram_input_stream_state_t*, dram_output_stream_state_t*, active_stream_info_t* rvtt_l1_ptr, epoch_stream_info_t* rvtt_l1_ptr* rvtt_l1_ptr, active_stream_info_t** rvtt_l1_ptr) [clone .constprop.0]
0000b5e4 l     F code_l1	0000030c run_varinst_cmd_dram_rmw(epoch_queue::VarinstCmdInfo&, unsigned long long&, unsigned long, unsigned long volatile* rvtt_l1_ptr) [clone .constprop.0]
ffc007a8 l     F .text	000000ec ncrisc_noc_fast_read_any_len(unsigned long, unsigned long, unsigned long long, unsigned long, unsigned long, unsigned long) [clone .constprop.0]
ffc00894 l     F .text	00000064 risc_epoch_load(unsigned long long)
ffc008f8 l     F .text	0000005c risc_extra_overlay_blob_load(unsigned long long, unsigned long)
ffc00954 l     F .text	00000080 ncrisc_noc_fast_write(unsigned long, unsigned long, unsigned long, unsigned long long, unsigned long, unsigned long, bool, bool, unsigned long, unsigned long) [clone .constprop.0]
ffc009d4 l     F .text	00000360 dram_input_stream_issue_scatter_read_indicies(bool, unsigned long, unsigned long, unsigned long, unsigned long, unsigned long, unsigned long, tt_uint64_t volatile* rvtt_l1_ptr, unsigned long&, unsigned long&, unsigned long long, unsigned long, unsigned long, unsigned long&, unsigned long, unsigned long, unsigned long&, unsigned long)
ffc00d34 l     F .text	00000350 dram_input_stream_scatter_queue_update(unsigned long, unsigned long&, unsigned long, unsigned long, unsigned long, unsigned long, dram_input_stream_state_t*, dram_q_state_t* rvtt_l1_ptr, unsigned long&, unsigned long&)
ffc01084 l     F .text	0000017c update_dram_write_ptrs(bool, bool, unsigned long, unsigned long, unsigned long, unsigned long, unsigned long, unsigned long long, dram_output_stream_state_t*, dram_io_state_t volatile* rvtt_l1_ptr, unsigned long, unsigned long) [clone .constprop.0]
0000b8f0 l     F code_l1	000009e4 run_dram_queue_update(void*, unsigned long volatile*, unsigned long long&, unsigned long&, unsigned long long&, unsigned char&, bool&, unsigned long&) [clone .constprop.0] [clone .isra.0]
0000f420 l     O .sbss	00000008 my_q_table_offset
0000f417 l     O .sbss	00000001 noc_size_y
0000f416 l     O .sbss	00000001 noc_size_x
ffc01200 l     F .text	000001e8 risc_dram_write(unsigned long, unsigned long, unsigned long, unsigned long, unsigned long long, unsigned long, unsigned long, unsigned long, unsigned long, unsigned long) [clone .constprop.0] [clone .isra.0]
ffc013e8 l     F .text	00000194 dram_output_stream_issue_scatter_write_indicies(unsigned long, unsigned long, unsigned long, unsigned long, unsigned long, unsigned long, unsigned long, tt_uint64_t volatile* rvtt_l1_ptr, unsigned long&, unsigned long long, unsigned long, unsigned long&, unsigned long, unsigned long, unsigned long&, unsigned long, unsigned long, unsigned long, unsigned long) [clone .constprop.0]
0000c2d4 l     F code_l1	000002b0 process_dram_write_moves_raw_data_l1(dram_output_stream_state_t*, dram_q_state_t* rvtt_l1_ptr, unsigned long, unsigned short, unsigned long, unsigned long, unsigned long long, unsigned long&, unsigned long, bool&) [clone .constprop.0]
0000c584 l     F code_l1	00002b84 run_epoch(void (*)(unsigned long long), void (*)(unsigned long long), void (*)(unsigned long long, unsigned long), void (*)(void*, unsigned long), bool, unsigned long long, bool&, unsigned long volatile&, unsigned long volatile&, unsigned long&, kernel_input_stream_state_t*, unsigned long&, kernel_output_stream_state_t*, unsigned long&, unsigned long&, unsigned long&, unsigned long&, unsigned long&, dram_q_state_t* rvtt_l1_ptr, dram_input_stream_state_t*, dram_output_stream_state_t*, active_stream_info_t* rvtt_l1_ptr, epoch_stream_info_t* rvtt_l1_ptr* rvtt_l1_ptr, active_stream_info_t** rvtt_l1_ptr, unsigned long) [clone .constprop.0]
0000f400 l     O .sbss	00000004 local_mem_barrier
0000f430 l     O .sbss	00000004 epoch_empty_check_cnt
0000f40c l     O .sbss	00000001 noc_trans_table_en
0000f414 l     O .sbss	00000002 my_logical_x
0000f410 l     O .sbss	00000002 my_logical_y
0000f41c l     O .sbss	00000004 my_q_rd_ptr
0000f418 l     O .sbss	00000004 my_q_wr_ptr
0000f440 l     O .bss	00000080 noc_read_scratch_buf
0000f4c0 l     O data_noinit	00000180 active_stream_info
0000f640 l     O data_noinit	00000004 num_active_streams
0000f644 l     O data_noinit	000005a0 dram_q_state
0000fbe4 l     O data_noinit	00000004 num_active_dram_queues
0000fbe8 l     O data_noinit	000002a0 dram_output_stream_state
0000fe88 l     O data_noinit	0000024c dram_input_stream_state
000100d4 l     O data_noinit	00000004 num_dram_input_streams
000100d8 l     O data_noinit	00000004 num_dram_output_streams
000100e0 l     O data_noinit	00000010 epoch_id_to_send
000100f0 l     O data_noinit	00000010 other_chip_epoch_id
00010100 l     O data_noinit	00000080 sender_tiles_received
00010180 l     O data_noinit	00000080 sender_tiles_acked
00010200 l     O data_noinit	00000080 receiver_tiles_received
00010280 l     O data_noinit	00000080 receiver_tiles_acked
00010300 l     O data_noinit	00000004 num_dram_prefetch_streams
00010320 l     O data_noinit	00000060 dram_prefetch_epoch_stream_info
00010380 l     O data_noinit	00000060 dram_prefetch_active_stream_info
000103e0 l     O data_noinit	00000600 input_stream_state
000109e0 l     O data_noinit	000004e0 output_stream_state
00010ec0 l     O data_noinit	00000004 num_input_streams
00010ec4 l     O data_noinit	00000004 num_output_streams
00000000 l    df *ABS*	00000000 
0000ba73 l       .debug_info	00000000 
0000ba73 l       .debug_info	00000000 
0000ba73 l       .debug_info	00000000 
0000ba73 l       .debug_info	00000000 
0000ba73 l       .debug_info	00000000 
0000ba73 l       .debug_info	00000000 
0000ba73 l       .debug_info	00000000 
0000ba73 l       .debug_info	00000000 
0000ba73 l       .debug_info	00000000 
0000ba73 l       .debug_info	00000000 
0000ba73 l       .debug_info	00000000 
0000ba73 l       .debug_info	00000000 
0000ba73 l       .debug_info	00000000 
0000ba73 l       .debug_info	00000000 
0000ba73 l       .debug_info	00000000 
0000ba73 l       .debug_info	00000000 
0000ba73 l       .debug_info	00000000 
0000ba73 l       .debug_info	00000000 
0000ba73 l       .debug_info	00000000 
0000ba73 l       .debug_info	00000000 
0000ba73 l       .debug_info	00000000 
0000ba73 l       .debug_info	00000000 
0000ba73 l       .debug_info	00000000 
0000ba73 l       .debug_info	00000000 
0000ba73 l       .debug_info	00000000 
0000ba73 l       .debug_info	00000000 
0000ba73 l       .debug_info	00000000 
0000ba73 l       .debug_info	00000000 
0000ba73 l       .debug_info	00000000 
0000ba73 l       .debug_info	00000000 
0000ba73 l       .debug_info	00000000 
0000ba73 l       .debug_info	00000000 
0000ba73 l       .debug_info	00000000 
0000ba73 l       .debug_info	00000000 
0000ba73 l       .debug_info	00000000 
0000ba73 l       .debug_info	00000000 
0000ba73 l       .debug_info	00000000 
0000ba73 l       .debug_info	00000000 
0000ba73 l       .debug_info	00000000 
0000ba73 l       .debug_info	00000000 
0000ba73 l       .debug_info	00000000 
0000ba73 l       .debug_info	00000000 
0000ba73 l       .debug_info	00000000 
0000ba73 l       .debug_info	00000000 
0000ba73 l       .debug_info	00000000 
0000ba73 l       .debug_info	00000000 
0000ba73 l       .debug_info	00000000 
00000000 l    df *ABS*	00000000 
0000f47f l       .debug_info	00000000 
0000f47f l       .debug_info	00000000 
0000f47f l       .debug_info	00000000 
0000f47f l       .debug_info	00000000 
0000f47f l       .debug_info	00000000 
0000f47f l       .debug_info	00000000 
0000f47f l       .debug_info	00000000 
0000f47f l       .debug_info	00000000 
0000f47f l       .debug_info	00000000 
0000f47f l       .debug_info	00000000 
0000f47f l       .debug_info	00000000 
0000f47f l       .debug_info	00000000 
0000f47f l       .debug_info	00000000 
0000f47f l       .debug_info	00000000 
0000f47f l       .debug_info	00000000 
0000f47f l       .debug_info	00000000 
0000f47f l       .debug_info	00000000 
0000f47f l       .debug_info	00000000 
0000f47f l       .debug_info	00000000 
0000f47f l       .debug_info	00000000 
0000f47f l       .debug_info	00000000 
0000f47f l       .debug_info	00000000 
0000f47f l       .debug_info	00000000 
0000f47f l       .debug_info	00000000 
0000f47f l       .debug_info	00000000 
0000f47f l       .debug_info	00000000 
0000f47f l       .debug_info	00000000 
0000f47f l       .debug_info	00000000 
0000f47f l       .debug_info	00000000 
0000f47f l       .debug_info	00000000 
0000f47f l       .debug_info	00000000 
0000f47f l       .debug_info	00000000 
0000f47f l       .debug_info	00000000 
0000f47f l       .debug_info	00000000 
0000f47f l       .debug_info	00000000 
0000f47f l       .debug_info	00000000 
0000f47f l       .debug_info	00000000 
0000f47f l       .debug_info	00000000 
0000f47f l       .debug_info	00000000 
0000f47f l       .debug_info	00000000 
0000f47f l       .debug_info	00000000 
0000f47f l       .debug_info	00000000 
0000f47f l       .debug_info	00000000 
0000f47f l       .debug_info	00000000 
0000f47f l       .debug_info	00000000 
0000f47f l       .debug_info	00000000 
0000f47f l       .debug_info	00000000 
0000f47f l       .debug_info	00000000 
0000f47f l       .debug_info	00000000 
0000f47f l       .debug_info	00000000 
0000f47f l       .debug_info	00000000 
0000f47f l       .debug_info	00000000 
0000f47f l       .debug_info	00000000 
0000f47f l       .debug_info	00000000 
0000f47f l       .debug_info	00000000 
0000f47f l       .debug_info	00000000 
0000f47f l       .debug_info	00000000 
0000f47f l       .debug_info	00000000 
0000f47f l       .debug_info	00000000 
0000f47f l       .debug_info	00000000 
0000f47f l       .debug_info	00000000 
0000f47f l       .debug_info	00000000 
0000f47f l       .debug_info	00000000 
0000f47f l       .debug_info	00000000 
0000f47f l       .debug_info	00000000 
0000f47f l       .debug_info	00000000 
0000f47f l       .debug_info	00000000 
0000f47f l       .debug_info	00000000 
0000f47f l       .debug_info	00000000 
0000f47f l       .debug_info	00000000 
0000f47f l       .debug_info	00000000 
0000f47f l       .debug_info	00000000 
0000f47f l       .debug_info	00000000 
0000f47f l       .debug_info	00000000 
0000f47f l       .debug_info	00000000 
0000f47f l       .debug_info	00000000 
0000f47f l       .debug_info	00000000 
0000f47f l       .debug_info	00000000 
0000f47f l       .debug_info	00000000 
0000f47f l       .debug_info	00000000 
0000f47f l       .debug_info	00000000 
0000f47f l       .debug_info	00000000 
0000f47f l       .debug_info	00000000 
0000f47f l       .debug_info	00000000 
00000000 l    df *ABS*	00000000 
00011c86 l       .debug_info	00000000 
00011c86 l       .debug_info	00000000 
00011c86 l       .debug_info	00000000 
00011c86 l       .debug_info	00000000 
00011c86 l       .debug_info	00000000 
00011c86 l       .debug_info	00000000 
00011c86 l       .debug_info	00000000 
00011c86 l       .debug_info	00000000 
00011c86 l       .debug_info	00000000 
00011c86 l       .debug_info	00000000 
00011c86 l       .debug_info	00000000 
00011c86 l       .debug_info	00000000 
00011c86 l       .debug_info	00000000 
00011c86 l       .debug_info	00000000 
00011c86 l       .debug_info	00000000 
00011c86 l       .debug_info	00000000 
00011c86 l       .debug_info	00000000 
00011c86 l       .debug_info	00000000 
00011c86 l       .debug_info	00000000 
00011c86 l       .debug_info	00000000 
00011c86 l       .debug_info	00000000 
00011c86 l       .debug_info	00000000 
00011c86 l       .debug_info	00000000 
00011c86 l       .debug_info	00000000 
00011c86 l       .debug_info	00000000 
00011c86 l       .debug_info	00000000 
00000000 l    df *ABS*	00000000 
00011ef0 l       .debug_info	00000000 
00011ef0 l       .debug_info	00000000 
00011ef0 l       .debug_info	00000000 
00011ef0 l       .debug_info	00000000 
00011ef0 l       .debug_info	00000000 
00011ef0 l       .debug_info	00000000 
00011ef0 l       .debug_info	00000000 
00011ef0 l       .debug_info	00000000 
00011ef0 l       .debug_info	00000000 
00011ef0 l       .debug_info	00000000 
00011ef0 l       .debug_info	00000000 
00011ef0 l       .debug_info	00000000 
00011ef0 l       .debug_info	00000000 
00011ef0 l       .debug_info	00000000 
00011ef0 l       .debug_info	00000000 
00011ef0 l       .debug_info	00000000 
00011ef0 l       .debug_info	00000000 
00011ef0 l       .debug_info	00000000 
00011ef0 l       .debug_info	00000000 
00011ef0 l       .debug_info	00000000 
00011ef0 l       .debug_info	00000000 
00011ef0 l       .debug_info	00000000 
00011ef0 l       .debug_info	00000000 
00011ef0 l       .debug_info	00000000 
00011ef0 l       .debug_info	00000000 
00011ef0 l       .debug_info	00000000 
00011ef0 l       .debug_info	00000000 
00011ef0 l       .debug_info	00000000 
00011ef0 l       .debug_info	00000000 
00011ef0 l       .debug_info	00000000 
00011ef0 l       .debug_info	00000000 
00011ef0 l       .debug_info	00000000 
00011ef0 l       .debug_info	00000000 
00011ef0 l       .debug_info	00000000 
00011ef0 l       .debug_info	00000000 
00011ef0 l       .debug_info	00000000 
00011ef0 l       .debug_info	00000000 
00011ef0 l       .debug_info	00000000 
00011ef0 l       .debug_info	00000000 
00011ef0 l       .debug_info	00000000 
00011ef0 l       .debug_info	00000000 
00011ef0 l       .debug_info	00000000 
00011ef0 l       .debug_info	00000000 
00011ef0 l       .debug_info	00000000 
00011ef0 l       .debug_info	00000000 
00011ef0 l       .debug_info	00000000 
00011ef0 l       .debug_info	00000000 
00011ef0 l       .debug_info	00000000 
00011ef0 l       .debug_info	00000000 
00011ef0 l       .debug_info	00000000 
00011ef0 l       .debug_info	00000000 
00011ef0 l       .debug_info	00000000 
00011ef0 l       .debug_info	00000000 
00000000 l    df *ABS*	00000000 
00017254 l       .debug_info	00000000 
00017254 l       .debug_info	00000000 
00017254 l       .debug_info	00000000 
00017254 l       .debug_info	00000000 
00017254 l       .debug_info	00000000 
00017254 l       .debug_info	00000000 
00017254 l       .debug_info	00000000 
00017254 l       .debug_info	00000000 
00017254 l       .debug_info	00000000 
00017254 l       .debug_info	00000000 
00017254 l       .debug_info	00000000 
00017254 l       .debug_info	00000000 
00017254 l       .debug_info	00000000 
00017254 l       .debug_info	00000000 
00017254 l       .debug_info	00000000 
00017254 l       .debug_info	00000000 
00017254 l       .debug_info	00000000 
00017254 l       .debug_info	00000000 
00017254 l       .debug_info	00000000 
00017254 l       .debug_info	00000000 
00017254 l       .debug_info	00000000 
00017254 l       .debug_info	00000000 
00017254 l       .debug_info	00000000 
00017254 l       .debug_info	00000000 
00017254 l       .debug_info	00000000 
00017254 l       .debug_info	00000000 
00017254 l       .debug_info	00000000 
00017254 l       .debug_info	00000000 
00017254 l       .debug_info	00000000 
00017254 l       .debug_info	00000000 
00017254 l       .debug_info	00000000 
00017254 l       .debug_info	00000000 
00017254 l       .debug_info	00000000 
00017254 l       .debug_info	00000000 
00017254 l       .debug_info	00000000 
00017254 l       .debug_info	00000000 
00017254 l       .debug_info	00000000 
00017254 l       .debug_info	00000000 
00017254 l       .debug_info	00000000 
00017254 l       .debug_info	00000000 
00017254 l       .debug_info	00000000 
00017254 l       .debug_info	00000000 
00017254 l       .debug_info	00000000 
00017254 l       .debug_info	00000000 
00017254 l       .debug_info	00000000 
00000000 l    df *ABS*	00000000 
0001a5d2 l       .debug_info	00000000 
0001a5d2 l       .debug_info	00000000 
0001a5d2 l       .debug_info	00000000 
0001a5d2 l       .debug_info	00000000 
0001a5d2 l       .debug_info	00000000 
0001a5d2 l       .debug_info	00000000 
0001a5d2 l       .debug_info	00000000 
0001a5d2 l       .debug_info	00000000 
0001a5d2 l       .debug_info	00000000 
0001a5d2 l       .debug_info	00000000 
0001a5d2 l       .debug_info	00000000 
0001a5d2 l       .debug_info	00000000 
0001a5d2 l       .debug_info	00000000 
0001a5d2 l       .debug_info	00000000 
0001a5d2 l       .debug_info	00000000 
0001a5d2 l       .debug_info	00000000 
0001a5d2 l       .debug_info	00000000 
0001a5d2 l       .debug_info	00000000 
0001a5d2 l       .debug_info	00000000 
0001a5d2 l       .debug_info	00000000 
0001a5d2 l       .debug_info	00000000 
0001a5d2 l       .debug_info	00000000 
0001a5d2 l       .debug_info	00000000 
0001a5d2 l       .debug_info	00000000 
0001a5d2 l       .debug_info	00000000 
00000000 l    df *ABS*	00000000 
0001c2ac l       .debug_info	00000000 
0001c2ac l       .debug_info	00000000 
0001c2ac l       .debug_info	00000000 
0001c2ac l       .debug_info	00000000 
0001c2ac l       .debug_info	00000000 
0001c2ac l       .debug_info	00000000 
0001c2ac l       .debug_info	00000000 
0001c2ac l       .debug_info	00000000 
0001c2ac l       .debug_info	00000000 
0001c2ac l       .debug_info	00000000 
0001c2ac l       .debug_info	00000000 
0001c2ac l       .debug_info	00000000 
0001c2ac l       .debug_info	00000000 
0001c2ac l       .debug_info	00000000 
0001c2ac l       .debug_info	00000000 
0001c2ac l       .debug_info	00000000 
0001c2ac l       .debug_info	00000000 
0001c2ac l       .debug_info	00000000 
0001c2ac l       .debug_info	00000000 
0001c2ac l       .debug_info	00000000 
0001c2ac l       .debug_info	00000000 
0001c2ac l       .debug_info	00000000 
0001c2ac l       .debug_info	00000000 
0001c2ac l       .debug_info	00000000 
0001c2ac l       .debug_info	00000000 
00000000 l    df *ABS*	00000000 
0001efdc l       .debug_info	00000000 
0001efdc l       .debug_info	00000000 
0001efdc l       .debug_info	00000000 
0001efdc l       .debug_info	00000000 
0001efdc l       .debug_info	00000000 
0001efdc l       .debug_info	00000000 
0001efdc l       .debug_info	00000000 
0001efdc l       .debug_info	00000000 
0001efdc l       .debug_info	00000000 
0001efdc l       .debug_info	00000000 
0001efdc l       .debug_info	00000000 
0001efdc l       .debug_info	00000000 
0001efdc l       .debug_info	00000000 
0001efdc l       .debug_info	00000000 
0001efdc l       .debug_info	00000000 
0001efdc l       .debug_info	00000000 
0001efdc l       .debug_info	00000000 
0001efdc l       .debug_info	00000000 
0001efdc l       .debug_info	00000000 
0001efdc l       .debug_info	00000000 
0001efdc l       .debug_info	00000000 
0001efdc l       .debug_info	00000000 
0001efdc l       .debug_info	00000000 
0001efdc l       .debug_info	00000000 
0001efdc l       .debug_info	00000000 
0001efdc l       .debug_info	00000000 
0001efdc l       .debug_info	00000000 
0001efdc l       .debug_info	00000000 
0001efdc l       .debug_info	00000000 
0001efdc l       .debug_info	00000000 
0001efdc l       .debug_info	00000000 
0001efdc l       .debug_info	00000000 
0001efdc l       .debug_info	00000000 
0001efdc l       .debug_info	00000000 
0001efdc l       .debug_info	00000000 
0001efdc l       .debug_info	00000000 
0001efdc l       .debug_info	00000000 
0001efdc l       .debug_info	00000000 
0001efdc l       .debug_info	00000000 
0001efdc l       .debug_info	00000000 
0001efdc l       .debug_info	00000000 
0001efdc l       .debug_info	00000000 
0001efdc l       .debug_info	00000000 
0001efdc l       .debug_info	00000000 
0001efdc l       .debug_info	00000000 
0001efdc l       .debug_info	00000000 
0001efdc l       .debug_info	00000000 
0001efdc l       .debug_info	00000000 
0001efdc l       .debug_info	00000000 
0001efdc l       .debug_info	00000000 
0001efdc l       .debug_info	00000000 
0001efdc l       .debug_info	00000000 
0001efdc l       .debug_info	00000000 
0001efdc l       .debug_info	00000000 
0001efdc l       .debug_info	00000000 
0001efdc l       .debug_info	00000000 
0001efdc l       .debug_info	00000000 
0001efdc l       .debug_info	00000000 
0001efdc l       .debug_info	00000000 
0001efdc l       .debug_info	00000000 
0001efdc l       .debug_info	00000000 
0001efdc l       .debug_info	00000000 
00000000 l    df *ABS*	00000000 
00022d84 l       .debug_info	00000000 
00022d84 l       .debug_info	00000000 
00022d84 l       .debug_info	00000000 
00022d84 l       .debug_info	00000000 
00022d84 l       .debug_info	00000000 
00022d84 l       .debug_info	00000000 
00022d84 l       .debug_info	00000000 
00022d84 l       .debug_info	00000000 
00022d84 l       .debug_info	00000000 
00022d84 l       .debug_info	00000000 
00022d84 l       .debug_info	00000000 
00022d84 l       .debug_info	00000000 
00022d84 l       .debug_info	00000000 
00022d84 l       .debug_info	00000000 
00022d84 l       .debug_info	00000000 
00022d84 l       .debug_info	00000000 
00022d84 l       .debug_info	00000000 
00022d84 l       .debug_info	00000000 
00022d84 l       .debug_info	00000000 
00022d84 l       .debug_info	00000000 
00022d84 l       .debug_info	00000000 
00022d84 l       .debug_info	00000000 
00022d84 l       .debug_info	00000000 
00002000 g       *ABS*	00000000 __trisc1_size
0001c2ac  w      .debug_info	00000000 .hidden risc_epoch.cc.55f664fb
0000f438 g       .bss	00000000 __l1_bss_end
ffc01658 g       .text	00000000 _etext
00009040 g     F erisc_l1_code	0000087c ApplicationHandler
ffe40000 g       *ABS*	00000000 TENSIX_INSTRN_BUF_BASE
00000000 g       *ABS*	00000000 TENSIX_L1_BASE
ffb00400 g       .stack	00000000 __freertos_irq_stack_top
0001a5d2  w      .debug_info	00000000 .hidden risc_common.cc.86fbc55b
00011c86  w      .debug_info	00000000 .hidden eth_ss.cpp.50e7627c
00022d84  w      .debug_info	00000000 .hidden noc_nonblocking_api.cc.88b5909b
ffb00400 g       .stack	00000000 __stack_top
ffec0000 g       *ABS*	00000000 TENSIX_MAILBOX_BASE
0000f440 g       .bss	00000000 __ldm_bss_start
00009400 g       erisc_l1_code	00000000 __firmware_global_pointer
00002000 g       erisc_l1_code	00000000 __firmware_start
00000400 g       *ABS*	00000000 __firmware_stack_size
ffb10000 g       *ABS*	00000000 TENSIX_NIU_REG_BASE
ffc0157c g     F .text	000000dc memset
00006c00 g       *ABS*	00000000 __trisc_base
0000ba73  w      .debug_info	00000000 .hidden erisc.cc.d3d9c141
ffc01668 g       .sbss	00000000 __l1_bss_start
ffc00000 g       *ABS*	00000000 TENSIX_NOCRISC_MEM_BASE
ffe00000 g       *ABS*	00000000 TENSIX_REGFILE_BASE
ffb00000 g       .stack	00000000 __stack_bottom
0001efdc  w      .debug_info	00000000 .hidden risc_chip_specific.cc.5b7d4a1c
00005000 g       *ABS*	00000000 __trisc2_size
00011ef0  w      .debug_info	00000000 .hidden dram_stream_intf.cc.867c4858
00004000 g       *ABS*	00000000 __trisc0_size
ffc01668 g       .sbss	00000000 _edata
0000f4c0 g       .bss	00000000 _end
0000f4c0 g       .bss	00000000 __ldm_bss_end
ffb00000 g       *ABS*	00000000 TENSIX_LOCAL_DATA_MEM_BASE
0000f47f  w      .debug_info	00000000 .hidden eth_init.cpp.d69cde7c
ffe80000 g       *ABS*	00000000 TENSIX_PC_BUF_BUF_BASE
00009020 g       erisc_l1_code	00000000 __erisc_jump_table
00017254  w      .debug_info	00000000 .hidden unpack_pack_stream_intf.cc.c35841a9



Disassembly of section erisc_l1_code:

00009040 <ApplicationHandler>:
ApplicationHandler():
/proj_sw/user_dev/jnie/budabackend/src/firmware/riscv/targets/erisc/src/erisc.cc:220
  }
}

void __attribute__((section("erisc_l1_code"))) ApplicationHandler(void)
{
  rtos_context_switch_ptr = (void (*)())RtosTable[0];
    9040:	000097b7          	lui	a5, 0x9
    9044:	0207a703          	lw	a4, 32(a5) # 9020 <__erisc_jump_table>
    9048:	0000f7b7          	lui	a5, 0xf
/proj_sw/user_dev/jnie/budabackend/src/firmware/riscv/targets/erisc/src/erisc.cc:219
{
    904c:	f6010113          	addi	sp, sp, -160
/proj_sw/user_dev/jnie/budabackend/src/firmware/riscv/targets/erisc/src/erisc.cc:220
  rtos_context_switch_ptr = (void (*)())RtosTable[0];
    9050:	42e7aa23          	sw	a4, 1076(a5) # f434 <rtos_context_switch_ptr>
/proj_sw/user_dev/jnie/budabackend/src/firmware/riscv/targets/erisc/src/erisc.cc:229
  uint64_t dram_next_epoch_ptr;
  uint16_t epoch_command_count = 0;

  epoch_empty_check_cnt = 0;

  epoch_id_to_send[0] = 0;
    9054:	000107b7          	lui	a5, 0x10
/proj_sw/user_dev/jnie/budabackend/src/firmware/riscv/targets/erisc/src/erisc.cc:219
{
    9058:	08812c23          	sw	s0, 152(sp)
    905c:	08912a23          	sw	s1, 148(sp)
    9060:	09512223          	sw	s5, 132(sp)
    9064:	09612023          	sw	s6, 128(sp)
    9068:	07712e23          	sw	s7, 124(sp)
    906c:	08112e23          	sw	ra, 156(sp)
    9070:	09212823          	sw	s2, 144(sp)
    9074:	09312623          	sw	s3, 140(sp)
    9078:	09412423          	sw	s4, 136(sp)
    907c:	07812c23          	sw	s8, 120(sp)
    9080:	07912a23          	sw	s9, 116(sp)
    9084:	07a12823          	sw	s10, 112(sp)
    9088:	07b12623          	sw	s11, 108(sp)
/proj_sw/user_dev/jnie/budabackend/src/firmware/riscv/targets/erisc/src/erisc.cc:229
  epoch_id_to_send[0] = 0;
    908c:	4c078793          	addi	a5, a5, 1216 # 104c0 <input_stream_state+0xe0>
    9090:	c207a023          	sw	zero, -992(a5)
/proj_sw/user_dev/jnie/budabackend/src/firmware/riscv/targets/erisc/src/erisc.cc:227
  epoch_empty_check_cnt = 0;
    9094:	0000fab7          	lui	s5, 0xf
/proj_sw/user_dev/jnie/budabackend/src/firmware/riscv/targets/erisc/src/erisc.cc:230
  other_chip_epoch_id[0] = 0;
    9098:	c207a823          	sw	zero, -976(a5)
/proj_sw/user_dev/jnie/budabackend/src/firmware/riscv/targets/erisc/src/erisc.cc:227
  epoch_empty_check_cnt = 0;
    909c:	420aa823          	sw	zero, 1072(s5) # f430 <epoch_empty_check_cnt>
NOC_CMD_BUF_READ_REG(unsigned long, unsigned long, unsigned long):
/proj_sw/user_dev/jnie/budabackend/src/firmware/riscv/wormhole/noc_nonblocking_api.h:45


inline uint32_t NOC_CMD_BUF_READ_REG(uint32_t noc, uint32_t buf, uint32_t addr) {
  uint32_t offset = (buf << NOC_CMD_BUF_OFFSET_BIT) + (noc << NOC_INSTANCE_OFFSET_BIT) + addr;
  volatile uint32_t tt_reg_ptr * ptr = (volatile uint32_t tt_reg_ptr *)offset;
  return *ptr;
    90a0:	ffb206b7          	lui	a3, 0xffb20
    90a4:	02c6a703          	lw	a4, 44(a3) # ffb2002c <TENSIX_MAILBOX_BASE+0xffc6002c>
ncrisc_noc_init():
/proj_sw/user_dev/jnie/budabackend/src/firmware/riscv/wormhole/noc_nonblocking_api.h:300
  for (int noc = 0; noc < NUM_NOCS; noc++) {
    uint32_t noc_id_reg = NOC_CMD_BUF_READ_REG(noc, 0, NOC_NODE_ID);
    uint32_t my_x = noc_id_reg & NOC_NODE_ID_MASK;
    uint32_t my_y = (noc_id_reg >> NOC_ADDR_NODE_ID_BITS) & NOC_NODE_ID_MASK;
    uint64_t xy_local_addr = NOC_XY_ADDR(my_x, my_y, 0);
    noc_xy_local_addr[noc] = (uint32_t)(xy_local_addr >> 32);
    90a8:	0000f637          	lui	a2, 0xf
    90ac:	40460613          	addi	a2, a2, 1028 # f404 <noc_xy_local_addr>
NOC_CMD_BUF_READ_REG(unsigned long, unsigned long, unsigned long):
/proj_sw/user_dev/jnie/budabackend/src/firmware/riscv/wormhole/noc_nonblocking_api.h:45
  return *ptr;
    90b0:	ffb30537          	lui	a0, 0xffb30
ncrisc_noc_init():
/proj_sw/user_dev/jnie/budabackend/src/firmware/riscv/wormhole/noc_nonblocking_api.h:298
    uint32_t my_y = (noc_id_reg >> NOC_ADDR_NODE_ID_BITS) & NOC_NODE_ID_MASK;
    90b4:	00675793          	srli	a5, a4, 0x6
    90b8:	03f7f793          	andi	a5, a5, 63
/proj_sw/user_dev/jnie/budabackend/src/firmware/riscv/wormhole/noc_nonblocking_api.h:297
    uint32_t my_x = noc_id_reg & NOC_NODE_ID_MASK;
    90bc:	03f77713          	andi	a4, a4, 63
/proj_sw/user_dev/jnie/budabackend/src/firmware/riscv/wormhole/noc_nonblocking_api.h:299
    uint64_t xy_local_addr = NOC_XY_ADDR(my_x, my_y, 0);
    90c0:	00471713          	slli	a4, a4, 0x4
    90c4:	00a79793          	slli	a5, a5, 0xa
    90c8:	00e7e7b3          	or	a5, a5, a4
/proj_sw/user_dev/jnie/budabackend/src/firmware/riscv/wormhole/noc_nonblocking_api.h:300
    noc_xy_local_addr[noc] = (uint32_t)(xy_local_addr >> 32);
    90cc:	00f62023          	sw	a5, 0(a2)
NOC_CMD_BUF_WRITE_REG(unsigned long, unsigned long, unsigned long, unsigned long):
/proj_sw/user_dev/jnie/budabackend/src/firmware/riscv/wormhole/noc_nonblocking_api.h:38
  *ptr = val;
    90d0:	00f6a223          	sw	a5, 4(a3)
    90d4:	40068713          	addi	a4, a3, 1024
    90d8:	00f72223          	sw	a5, 4(a4)
NOC_CMD_BUF_READ_REG(unsigned long, unsigned long, unsigned long):
/proj_sw/user_dev/jnie/budabackend/src/firmware/riscv/wormhole/noc_nonblocking_api.h:45
  return *ptr;
    90dc:	02c52703          	lw	a4, 44(a0) # ffb3002c <TENSIX_MAILBOX_BASE+0xffc7002c>
risc_init():
/proj_sw/user_dev/jnie/budabackend/src/firmware/riscv/common/risc_common.cc:74
}

void risc_init() {
  for (uint32_t n = 0; n < NUM_NOCS; n++) {
    uint32_t noc_id_reg = NOC_CMD_BUF_READ_REG(n, 0, NOC_NODE_ID);
    my_x[n] = noc_id_reg & NOC_NODE_ID_MASK;
    90e0:	0000f437          	lui	s0, 0xf
/proj_sw/user_dev/jnie/budabackend/src/firmware/riscv/common/risc_common.cc:75
    my_y[n] = (noc_id_reg >> NOC_ADDR_NODE_ID_BITS) & NOC_NODE_ID_MASK;
    90e4:	0000f4b7          	lui	s1, 0xf
/proj_sw/user_dev/jnie/budabackend/src/firmware/riscv/common/risc_common.cc:77
    if (n == 0) {
      noc_size_x = (noc_id_reg >> (NOC_ADDR_NODE_ID_BITS+NOC_ADDR_NODE_ID_BITS)) & ((((uint64_t)0x1) << (NOC_ADDR_NODE_ID_BITS+1)) - 1);
    90e8:	0000fb37          	lui	s6, 0xf
ncrisc_noc_init():
/proj_sw/user_dev/jnie/budabackend/src/firmware/riscv/wormhole/noc_nonblocking_api.h:298
    uint32_t my_y = (noc_id_reg >> NOC_ADDR_NODE_ID_BITS) & NOC_NODE_ID_MASK;
    90ec:	00675793          	srli	a5, a4, 0x6
    90f0:	03f7f793          	andi	a5, a5, 63
/proj_sw/user_dev/jnie/budabackend/src/firmware/riscv/wormhole/noc_nonblocking_api.h:297
    uint32_t my_x = noc_id_reg & NOC_NODE_ID_MASK;
    90f4:	03f77713          	andi	a4, a4, 63
/proj_sw/user_dev/jnie/budabackend/src/firmware/riscv/wormhole/noc_nonblocking_api.h:299
    uint64_t xy_local_addr = NOC_XY_ADDR(my_x, my_y, 0);
    90f8:	00471713          	slli	a4, a4, 0x4
    90fc:	00a79793          	slli	a5, a5, 0xa
    9100:	00e7e7b3          	or	a5, a5, a4
/proj_sw/user_dev/jnie/budabackend/src/firmware/riscv/wormhole/noc_nonblocking_api.h:300
    noc_xy_local_addr[noc] = (uint32_t)(xy_local_addr >> 32);
    9104:	00f62223          	sw	a5, 4(a2)
NOC_CMD_BUF_WRITE_REG(unsigned long, unsigned long, unsigned long, unsigned long):
/proj_sw/user_dev/jnie/budabackend/src/firmware/riscv/wormhole/noc_nonblocking_api.h:38
  *ptr = val;
    9108:	00f52223          	sw	a5, 4(a0)
    910c:	40050713          	addi	a4, a0, 1024
    9110:	00f72223          	sw	a5, 4(a4)
NOC_CMD_BUF_READ_REG(unsigned long, unsigned long, unsigned long):
/proj_sw/user_dev/jnie/budabackend/src/firmware/riscv/wormhole/noc_nonblocking_api.h:45
  return *ptr;
    9114:	02c6a603          	lw	a2, 44(a3)
risc_init():
/proj_sw/user_dev/jnie/budabackend/src/firmware/riscv/common/risc_common.cc:78
      noc_size_y = (noc_id_reg >> (NOC_ADDR_NODE_ID_BITS+NOC_ADDR_NODE_ID_BITS+(NOC_ADDR_NODE_ID_BITS+1))) & ((((uint64_t)0x1) << (NOC_ADDR_NODE_ID_BITS+1)) - 1);
    9118:	0000fbb7          	lui	s7, 0xf
NOC_CFG_READ_REG(unsigned long, unsigned long):
/proj_sw/user_dev/jnie/budabackend/src/firmware/riscv/wormhole/noc_nonblocking_api.h:79
  return *ptr;
    911c:	10068693          	addi	a3, a3, 256
set_noc_trans_table(unsigned long, unsigned char&, unsigned char&, unsigned char&):
/proj_sw/user_dev/jnie/budabackend/src/firmware/riscv/wormhole/risc_chip_specific.h:66
  uint32_t y = NOC_UNICAST_ADDR_Y(dram_ptr_addr);
  return x == 0 && y == 3;
}

inline void set_noc_trans_table(uint32_t noc, uint8_t& noc_trans_table_en, uint8_t& my_logical_x, uint8_t& my_logical_y) {
  noc_trans_table_en = (NOC_CFG_READ_REG(noc, NIU_CFG_0) >> NIU_CFG_0_NOC_ID_TRANSLATE_EN) & 0x1;
    9120:	0000f8b7          	lui	a7, 0xf
risc_init():
/proj_sw/user_dev/jnie/budabackend/src/firmware/riscv/common/risc_common.cc:75
    my_y[n] = (noc_id_reg >> NOC_ADDR_NODE_ID_BITS) & NOC_NODE_ID_MASK;
    9124:	00665713          	srli	a4, a2, 0x6
/proj_sw/user_dev/jnie/budabackend/src/firmware/riscv/common/risc_common.cc:74
    my_x[n] = noc_id_reg & NOC_NODE_ID_MASK;
    9128:	03f67813          	andi	a6, a2, 63
/proj_sw/user_dev/jnie/budabackend/src/firmware/riscv/common/risc_common.cc:77
      noc_size_x = (noc_id_reg >> (NOC_ADDR_NODE_ID_BITS+NOC_ADDR_NODE_ID_BITS)) & ((((uint64_t)0x1) << (NOC_ADDR_NODE_ID_BITS+1)) - 1);
    912c:	00c65793          	srli	a5, a2, 0xc
/proj_sw/user_dev/jnie/budabackend/src/firmware/riscv/common/risc_common.cc:78
      noc_size_y = (noc_id_reg >> (NOC_ADDR_NODE_ID_BITS+NOC_ADDR_NODE_ID_BITS+(NOC_ADDR_NODE_ID_BITS+1))) & ((((uint64_t)0x1) << (NOC_ADDR_NODE_ID_BITS+1)) - 1);
    9130:	01365613          	srli	a2, a2, 0x13
/proj_sw/user_dev/jnie/budabackend/src/firmware/riscv/common/risc_common.cc:75
    my_y[n] = (noc_id_reg >> NOC_ADDR_NODE_ID_BITS) & NOC_NODE_ID_MASK;
    9134:	03f77593          	andi	a1, a4, 63
/proj_sw/user_dev/jnie/budabackend/src/firmware/riscv/common/risc_common.cc:77
      noc_size_x = (noc_id_reg >> (NOC_ADDR_NODE_ID_BITS+NOC_ADDR_NODE_ID_BITS)) & ((((uint64_t)0x1) << (NOC_ADDR_NODE_ID_BITS+1)) - 1);
    9138:	07f7f793          	andi	a5, a5, 127
/proj_sw/user_dev/jnie/budabackend/src/firmware/riscv/common/risc_common.cc:78
      noc_size_y = (noc_id_reg >> (NOC_ADDR_NODE_ID_BITS+NOC_ADDR_NODE_ID_BITS+(NOC_ADDR_NODE_ID_BITS+1))) & ((((uint64_t)0x1) << (NOC_ADDR_NODE_ID_BITS+1)) - 1);
    913c:	07f67613          	andi	a2, a2, 127
/proj_sw/user_dev/jnie/budabackend/src/firmware/riscv/common/risc_common.cc:77
      noc_size_x = (noc_id_reg >> (NOC_ADDR_NODE_ID_BITS+NOC_ADDR_NODE_ID_BITS)) & ((((uint64_t)0x1) << (NOC_ADDR_NODE_ID_BITS+1)) - 1);
    9140:	40fb0b23          	sb	a5, 1046(s6) # f416 <noc_size_x>
/proj_sw/user_dev/jnie/budabackend/src/firmware/riscv/common/risc_common.cc:78
      noc_size_y = (noc_id_reg >> (NOC_ADDR_NODE_ID_BITS+NOC_ADDR_NODE_ID_BITS+(NOC_ADDR_NODE_ID_BITS+1))) & ((((uint64_t)0x1) << (NOC_ADDR_NODE_ID_BITS+1)) - 1);
    9144:	40cb8ba3          	sb	a2, 1047(s7) # f417 <noc_size_y>
/proj_sw/user_dev/jnie/budabackend/src/firmware/riscv/common/risc_common.cc:74
    my_x[n] = noc_id_reg & NOC_NODE_ID_MASK;
    9148:	43040623          	sb	a6, 1068(s0) # f42c <my_x>
/proj_sw/user_dev/jnie/budabackend/src/firmware/riscv/common/risc_common.cc:75
    my_y[n] = (noc_id_reg >> NOC_ADDR_NODE_ID_BITS) & NOC_NODE_ID_MASK;
    914c:	42b48423          	sb	a1, 1064(s1) # f428 <my_y>
NOC_CFG_READ_REG(unsigned long, unsigned long):
/proj_sw/user_dev/jnie/budabackend/src/firmware/riscv/wormhole/noc_nonblocking_api.h:79
    9150:	0006a703          	lw	a4, 0(a3)
set_noc_trans_table(unsigned long, unsigned char&, unsigned char&, unsigned char&):
/proj_sw/user_dev/jnie/budabackend/src/firmware/riscv/wormhole/risc_chip_specific.h:69

  uint32_t noc_id_logical_reg = NOC_CFG_READ_REG(noc, NOC_ID_LOGICAL);
  my_logical_x = noc_id_logical_reg & NOC_NODE_ID_MASK;
    9154:	0000f637          	lui	a2, 0xf
/proj_sw/user_dev/jnie/budabackend/src/firmware/riscv/wormhole/risc_chip_specific.h:66
  noc_trans_table_en = (NOC_CFG_READ_REG(noc, NIU_CFG_0) >> NIU_CFG_0_NOC_ID_TRANSLATE_EN) & 0x1;
    9158:	00e75713          	srli	a4, a4, 0xe
    915c:	00177713          	andi	a4, a4, 1
    9160:	40e88623          	sb	a4, 1036(a7) # f40c <noc_trans_table_en>
NOC_CFG_READ_REG(unsigned long, unsigned long):
/proj_sw/user_dev/jnie/budabackend/src/firmware/riscv/wormhole/noc_nonblocking_api.h:79
    9164:	0386a703          	lw	a4, 56(a3)
risc_init():
/proj_sw/user_dev/jnie/budabackend/src/firmware/riscv/common/risc_common.cc:74
    my_x[n] = noc_id_reg & NOC_NODE_ID_MASK;
    9168:	42c40693          	addi	a3, s0, 1068
set_noc_trans_table(unsigned long, unsigned char&, unsigned char&, unsigned char&):
/proj_sw/user_dev/jnie/budabackend/src/firmware/riscv/wormhole/risc_chip_specific.h:69
  my_logical_x = noc_id_logical_reg & NOC_NODE_ID_MASK;
    916c:	03f77793          	andi	a5, a4, 63
/proj_sw/user_dev/jnie/budabackend/src/firmware/riscv/wormhole/risc_chip_specific.h:70
  my_logical_y = (noc_id_logical_reg >> NOC_ADDR_NODE_ID_BITS) & NOC_NODE_ID_MASK;
    9170:	00675713          	srli	a4, a4, 0x6
/proj_sw/user_dev/jnie/budabackend/src/firmware/riscv/wormhole/risc_chip_specific.h:69
  my_logical_x = noc_id_logical_reg & NOC_NODE_ID_MASK;
    9174:	40f60a23          	sb	a5, 1044(a2) # f414 <my_logical_x>
/proj_sw/user_dev/jnie/budabackend/src/firmware/riscv/wormhole/risc_chip_specific.h:70
  my_logical_y = (noc_id_logical_reg >> NOC_ADDR_NODE_ID_BITS) & NOC_NODE_ID_MASK;
    9178:	03f77713          	andi	a4, a4, 63
    917c:	0000f7b7          	lui	a5, 0xf
    9180:	40e78823          	sb	a4, 1040(a5) # f410 <my_logical_y>
NOC_CMD_BUF_READ_REG(unsigned long, unsigned long, unsigned long):
/proj_sw/user_dev/jnie/budabackend/src/firmware/riscv/wormhole/noc_nonblocking_api.h:45
  return *ptr;
    9184:	02c52703          	lw	a4, 44(a0)
set_noc_trans_table(unsigned long, unsigned char&, unsigned char&, unsigned char&):
/proj_sw/user_dev/jnie/budabackend/src/firmware/riscv/wormhole/risc_chip_specific.h:70
    9188:	41078793          	addi	a5, a5, 1040
/proj_sw/user_dev/jnie/budabackend/src/firmware/riscv/wormhole/risc_chip_specific.h:69
  my_logical_x = noc_id_logical_reg & NOC_NODE_ID_MASK;
    918c:	41460613          	addi	a2, a2, 1044
risc_init():
/proj_sw/user_dev/jnie/budabackend/src/firmware/riscv/common/risc_common.cc:74
    9190:	03f77313          	andi	t1, a4, 63
/proj_sw/user_dev/jnie/budabackend/src/firmware/riscv/common/risc_common.cc:75
    my_y[n] = (noc_id_reg >> NOC_ADDR_NODE_ID_BITS) & NOC_NODE_ID_MASK;
    9194:	00675713          	srli	a4, a4, 0x6
/proj_sw/user_dev/jnie/budabackend/src/firmware/riscv/common/risc_common.cc:74
    my_x[n] = noc_id_reg & NOC_NODE_ID_MASK;
    9198:	006680a3          	sb	t1, 1(a3)
/proj_sw/user_dev/jnie/budabackend/src/firmware/riscv/common/risc_common.cc:75
    my_y[n] = (noc_id_reg >> NOC_ADDR_NODE_ID_BITS) & NOC_NODE_ID_MASK;
    919c:	03f77713          	andi	a4, a4, 63
    91a0:	42848693          	addi	a3, s1, 1064
    91a4:	00e680a3          	sb	a4, 1(a3)
NOC_CFG_READ_REG(unsigned long, unsigned long):
/proj_sw/user_dev/jnie/budabackend/src/firmware/riscv/wormhole/noc_nonblocking_api.h:79
  return *ptr;
    91a8:	10050713          	addi	a4, a0, 256
    91ac:	00072683          	lw	a3, 0(a4)
set_noc_trans_table(unsigned long, unsigned char&, unsigned char&, unsigned char&):
/proj_sw/user_dev/jnie/budabackend/src/firmware/riscv/wormhole/risc_chip_specific.h:66
  noc_trans_table_en = (NOC_CFG_READ_REG(noc, NIU_CFG_0) >> NIU_CFG_0_NOC_ID_TRANSLATE_EN) & 0x1;
    91b0:	00e6d693          	srli	a3, a3, 0xe
    91b4:	0016f693          	andi	a3, a3, 1
    91b8:	40d88623          	sb	a3, 1036(a7)
NOC_CFG_READ_REG(unsigned long, unsigned long):
/proj_sw/user_dev/jnie/budabackend/src/firmware/riscv/wormhole/noc_nonblocking_api.h:79
    91bc:	03872703          	lw	a4, 56(a4)
set_noc_trans_table(unsigned long, unsigned char&, unsigned char&, unsigned char&):
/proj_sw/user_dev/jnie/budabackend/src/firmware/riscv/wormhole/risc_chip_specific.h:69
  my_logical_x = noc_id_logical_reg & NOC_NODE_ID_MASK;
    91c0:	03f77693          	andi	a3, a4, 63
/proj_sw/user_dev/jnie/budabackend/src/firmware/riscv/wormhole/risc_chip_specific.h:70
  my_logical_y = (noc_id_logical_reg >> NOC_ADDR_NODE_ID_BITS) & NOC_NODE_ID_MASK;
    91c4:	00675713          	srli	a4, a4, 0x6
    91c8:	03f77713          	andi	a4, a4, 63
    91cc:	00e780a3          	sb	a4, 1(a5)
/proj_sw/user_dev/jnie/budabackend/src/firmware/riscv/wormhole/risc_chip_specific.h:69
  my_logical_x = noc_id_logical_reg & NOC_NODE_ID_MASK;
    91d0:	00d600a3          	sb	a3, 1(a2)
risc_iram_load():
/proj_sw/user_dev/jnie/budabackend/src/firmware/riscv/targets/erisc/src/erisc.cc:166
  if (my_x[0] < 5) {
    91d4:	00400793          	li	a5, 4
    91d8:	0d07ee63          	bltu	a5, a6, 92b4 <ApplicationHandler+0x274>
/proj_sw/user_dev/jnie/budabackend/src/firmware/riscv/targets/erisc/src/erisc.cc:167
    my_eth_id = (my_x[0] * 2 - 1) + (my_y[0] == 0 ? 0 : 8);
    91dc:	00181793          	slli	a5, a6, 0x1
    91e0:	fff78793          	addi	a5, a5, -1
/proj_sw/user_dev/jnie/budabackend/src/firmware/riscv/targets/erisc/src/erisc.cc:169
    my_eth_id = (9 - my_x[0]) * 2 + (my_y[0] == 0 ? 0 : 8);
    91e4:	00b03733          	snez	a4, a1
    91e8:	00371713          	slli	a4, a4, 0x3
    91ec:	00e787b3          	add	a5, a5, a4
/proj_sw/user_dev/jnie/budabackend/src/firmware/riscv/targets/erisc/src/erisc.cc:172
  bool connected = sys_connections->eth_conn_info[my_eth_id] > ETH_UNCONNECTED;
    91f0:	00001737          	lui	a4, 0x1
    91f4:	20070713          	addi	a4, a4, 512 # 1200 <__firmware_stack_size+0xe00>
    91f8:	00279793          	slli	a5, a5, 0x2
    91fc:	00f707b3          	add	a5, a4, a5
    9200:	0007a703          	lw	a4, 0(a5)
/proj_sw/user_dev/jnie/budabackend/src/firmware/riscv/targets/erisc/src/erisc.cc:173
  if (connected) {
    9204:	00100793          	li	a5, 1
    9208:	00e7dc63          	bge	a5, a4, 9220 <ApplicationHandler+0x1e0>
eth_mac_reg_write(unsigned long, unsigned long):
/proj_sw/user_dev/jnie/budabackend/src/firmware/riscv/targets/erisc/src/api/eth_init.cpp:280
uint32_t eth_risc_reg_read(uint32_t offset) {
  return ETH_READ_REG(ETH_RISC_REGS_START+offset);
}

void eth_mac_reg_write(uint32_t offset, uint32_t val)  {
  ETH_WRITE_REG(ETH_MAC_REGS_START+offset, val);
    920c:	ffba07b7          	lui	a5, 0xffba0
    9210:	300006b7          	lui	a3, 0x30000
    9214:	00d7a023          	sw	a3, 0(a5) # ffba0000 <TENSIX_MAILBOX_BASE+0xffce0000>
    9218:	00600693          	li	a3, 6
    921c:	00d7a223          	sw	a3, 4(a5)
risc_iram_load():
/proj_sw/user_dev/jnie/budabackend/src/firmware/riscv/targets/erisc/src/erisc.cc:180
  *iram_load_reg = eth_l1_mem::address_map::TILE_HEADER_BUFFER_BASE >> 4;
    9220:	000027b7          	lui	a5, 0x2
    9224:	ffb946b7          	lui	a3, 0xffb94
    9228:	80078793          	addi	a5, a5, -2048 # 1800 <__firmware_stack_size+0x1400>
    922c:	08f6ac23          	sw	a5, 152(a3) # ffb94098 <TENSIX_MAILBOX_BASE+0xffcd4098>
RISC_POST_STATUS(unsigned long):
/proj_sw/user_dev/jnie/budabackend/src/firmware/riscv/targets/erisc/src/risc.h:26
  ptr[0] = status;
}

inline void RISC_POST_STATUS(uint32_t status) {
  volatile uint32_t* ptr = (volatile uint32_t*)(NOC_CFG(ROUTER_CFG_2));
  ptr[0] = status;
    9230:	100006b7          	lui	a3, 0x10000
    9234:	ffb207b7          	lui	a5, 0xffb20
    9238:	10d7a623          	sw	a3, 268(a5) # ffb2010c <TENSIX_MAILBOX_BASE+0xffc6010c>
risc_iram_load():
/proj_sw/user_dev/jnie/budabackend/src/firmware/riscv/targets/erisc/src/erisc.cc:183
  while (*iram_load_reg & 0x1);
    923c:	ffb946b7          	lui	a3, 0xffb94
    9240:	0986a783          	lw	a5, 152(a3) # ffb94098 <TENSIX_MAILBOX_BASE+0xffcd4098>
    9244:	0017f793          	andi	a5, a5, 1
    9248:	fe079ce3          	bnez	a5, 9240 <ApplicationHandler+0x200>
/proj_sw/user_dev/jnie/budabackend/src/firmware/riscv/targets/erisc/src/erisc.cc:185
  if (connected) {
    924c:	00100793          	li	a5, 1
    9250:	0ce7d263          	bge	a5, a4, 9314 <ApplicationHandler+0x2d4>
/proj_sw/user_dev/jnie/budabackend/src/firmware/riscv/targets/erisc/src/erisc.cc:186
    uint32_t aiclk_ps = config_buf->aiclk_ps;
    9254:	000017b7          	lui	a5, 0x1
    9258:	0487a703          	lw	a4, 72(a5) # 1048 <__firmware_stack_size+0xc48>
/proj_sw/user_dev/jnie/budabackend/src/firmware/riscv/targets/erisc/src/erisc.cc:188
    uint8_t clk_scalar = BOOT_REFCLK_PERIOD_PS / (aiclk_ps);
    925c:	00071463          	bnez	a4, 9264 <ApplicationHandler+0x224>
    9260:	00100713          	li	a4, 1
    9264:	000097b7          	lui	a5, 0x9
    9268:	08878793          	addi	a5, a5, 136 # 9088 <ApplicationHandler+0x48>
    926c:	02e7d7b3          	divu	a5, a5, a4
/proj_sw/user_dev/jnie/budabackend/src/firmware/riscv/targets/erisc/src/erisc.cc:189
    uint32_t wait_cycles_1us = 27 * clk_scalar; //~1us
    9270:	0ff7f793          	zext.b	a5, a5
    9274:	01b00713          	li	a4, 27
    9278:	02e787b3          	mul	a5, a5, a4
    927c:	06400513          	li	a0, 100
eth_risc_reg_read(unsigned long):
/proj_sw/user_dev/jnie/budabackend/src/firmware/riscv/targets/erisc/src/api/eth_init.cpp:276
  return ETH_READ_REG(ETH_RISC_REGS_START+offset);
    9280:	ffb12637          	lui	a2, 0xffb12
eth_wait_cycles(unsigned long):
/proj_sw/user_dev/jnie/budabackend/src/firmware/riscv/targets/erisc/src/api/eth_init.cpp:171
  if (wait_cycles == 0) {
    9284:	04078063          	beqz	a5, 92c4 <ApplicationHandler+0x284>
eth_risc_reg_read(unsigned long):
/proj_sw/user_dev/jnie/budabackend/src/firmware/riscv/targets/erisc/src/api/eth_init.cpp:276
  return ETH_READ_REG(ETH_RISC_REGS_START+offset);
    9288:	1f062683          	lw	a3, 496(a2) # ffb121f0 <TENSIX_MAILBOX_BASE+0xffc521f0>
    928c:	1f862703          	lw	a4, 504(a2)
eth_wait_cycles(unsigned long):
/proj_sw/user_dev/jnie/budabackend/src/firmware/riscv/targets/erisc/src/api/eth_init.cpp:175
  uint64_t end_timer = curr_timer + wait_cycles;
    9290:	00d78833          	add	a6, a5, a3
    9294:	00f835b3          	sltu	a1, a6, a5
    9298:	00e585b3          	add	a1, a1, a4
/proj_sw/user_dev/jnie/budabackend/src/firmware/riscv/targets/erisc/src/api/eth_init.cpp:176
  while (curr_timer < end_timer) {
    929c:	00b76663          	bltu	a4, a1, 92a8 <ApplicationHandler+0x268>
    92a0:	02e59263          	bne	a1, a4, 92c4 <ApplicationHandler+0x284>
    92a4:	0306f063          	bgeu	a3, a6, 92c4 <ApplicationHandler+0x284>
eth_risc_reg_read(unsigned long):
/proj_sw/user_dev/jnie/budabackend/src/firmware/riscv/targets/erisc/src/api/eth_init.cpp:276
  return ETH_READ_REG(ETH_RISC_REGS_START+offset);
    92a8:	1f062683          	lw	a3, 496(a2)
    92ac:	1f862703          	lw	a4, 504(a2)
eth_read_wall_clock():
/proj_sw/user_dev/jnie/budabackend/src/firmware/riscv/targets/erisc/src/api/eth_init.cpp:166
  return (((uint64_t)wall_clock_high) << 32) | wall_clock_low;
    92b0:	fedff06f          	j	929c <ApplicationHandler+0x25c>
risc_iram_load():
/proj_sw/user_dev/jnie/budabackend/src/firmware/riscv/targets/erisc/src/erisc.cc:169
    my_eth_id = (9 - my_x[0]) * 2 + (my_y[0] == 0 ? 0 : 8);
    92b4:	00900793          	li	a5, 9
    92b8:	410787b3          	sub	a5, a5, a6
    92bc:	00179793          	slli	a5, a5, 0x1
    92c0:	f25ff06f          	j	91e4 <ApplicationHandler+0x1a4>
/proj_sw/user_dev/jnie/budabackend/src/firmware/riscv/targets/erisc/src/erisc.cc:190
    for (int i = 0; i < 100; i++) {
    92c4:	fff50513          	addi	a0, a0, -1
    92c8:	fa051ee3          	bnez	a0, 9284 <ApplicationHandler+0x244>
eth_pcs_dir_reg_write(unsigned char, unsigned short):
/proj_sw/user_dev/jnie/budabackend/src/firmware/riscv/targets/erisc/src/api/eth_init.cpp:288
uint32_t eth_mac_reg_read(uint32_t offset) {
  return ETH_READ_REG(ETH_MAC_REGS_START+offset);
}

void eth_pcs_dir_reg_write(uint8_t reg_id, uint16_t val) {
  ETH_WRITE_REG(ETH_PCS_REGS_START+(((uint32_t)reg_id) << 2), val);
    92cc:	ffbb09b7          	lui	s3, 0xffbb0
    92d0:	3fc98913          	addi	s2, s3, 1020 # ffbb03fc <TENSIX_MAILBOX_BASE+0xffcf03fc>
    92d4:	30000c13          	li	s8, 768
risc_iram_load():
/proj_sw/user_dev/jnie/budabackend/src/firmware/riscv/targets/erisc/src/erisc.cc:196
      if (pcs_status != 0x6) {
    92d8:	00600a13          	li	s4, 6
eth_pcs_dir_reg_write(unsigned char, unsigned short):
/proj_sw/user_dev/jnie/budabackend/src/firmware/riscv/targets/erisc/src/api/eth_init.cpp:288
    92dc:	01892023          	sw	s8, 0(s2)
eth_pcs_dir_reg_read(unsigned char):
/proj_sw/user_dev/jnie/budabackend/src/firmware/riscv/targets/erisc/src/api/eth_init.cpp:292
}

uint16_t eth_pcs_dir_reg_read(uint8_t reg_id) {
  return (uint16_t)(ETH_READ_REG(ETH_PCS_REGS_START+(((uint32_t)reg_id) << 2)));
    92e0:	00092783          	lw	a5, 0(s2)
    92e4:	0049a783          	lw	a5, 4(s3)
risc_iram_load():
/proj_sw/user_dev/jnie/budabackend/src/firmware/riscv/targets/erisc/src/erisc.cc:196
    92e8:	01079793          	slli	a5, a5, 0x10
    92ec:	0107d793          	srli	a5, a5, 0x10
    92f0:	01478663          	beq	a5, s4, 92fc <ApplicationHandler+0x2bc>
/proj_sw/user_dev/jnie/budabackend/src/firmware/riscv/targets/erisc/src/erisc.cc:197
        risc_context_switch();
    92f4:	63c000ef          	jal	ra, 9930 <risc_context_switch()>
/proj_sw/user_dev/jnie/budabackend/src/firmware/riscv/targets/erisc/src/erisc.cc:194
    while (1) {
    92f8:	fe5ff06f          	j	92dc <ApplicationHandler+0x29c>
eth_mac_reg_write(unsigned long, unsigned long):
/proj_sw/user_dev/jnie/budabackend/src/firmware/riscv/targets/erisc/src/api/eth_init.cpp:280
  ETH_WRITE_REG(ETH_MAC_REGS_START+offset, val);
    92fc:	300007b7          	lui	a5, 0x30000
    9300:	ffba0737          	lui	a4, 0xffba0
    9304:	00178793          	addi	a5, a5, 1 # 30000001 <noc_nonblocking_api.cc.88b5909b+0x2ffdd27d>
    9308:	00f72023          	sw	a5, 0(a4) # ffba0000 <TENSIX_MAILBOX_BASE+0xffce0000>
    930c:	00700793          	li	a5, 7
    9310:	00f72223          	sw	a5, 4(a4)
ApplicationHandler():
/proj_sw/user_dev/jnie/budabackend/src/firmware/riscv/targets/erisc/src/erisc.cc:241
#ifdef RISC_B0_HW
  //copy code from temporary L1 location to erisc iram.
  risc_iram_load();
#endif

  loading_noc = my_x[0] % NUM_NOCS;
    9314:	42c44983          	lbu	s3, 1068(s0)
/proj_sw/user_dev/jnie/budabackend/src/firmware/riscv/targets/erisc/src/erisc.cc:244

  // Global loop stack
  LoopStack<4> loopstack;
    9318:	03000613          	li	a2, 48
/proj_sw/user_dev/jnie/budabackend/src/firmware/riscv/targets/erisc/src/erisc.cc:241
  loading_noc = my_x[0] % NUM_NOCS;
    931c:	0019f913          	andi	s2, s3, 1
    9320:	0000f437          	lui	s0, 0xf
/proj_sw/user_dev/jnie/budabackend/src/firmware/riscv/targets/erisc/src/erisc.cc:244
  LoopStack<4> loopstack;
    9324:	00000593          	li	a1, 0
    9328:	02c10513          	addi	a0, sp, 44
/proj_sw/user_dev/jnie/budabackend/src/firmware/riscv/targets/erisc/src/erisc.cc:241
  loading_noc = my_x[0] % NUM_NOCS;
    932c:	43240523          	sb	s2, 1066(s0) # f42a <loading_noc>
/proj_sw/user_dev/jnie/budabackend/src/firmware/riscv/targets/erisc/src/erisc.cc:244
  LoopStack<4> loopstack;
    9330:	ffbf8097          	auipc	ra, 0xffbf8
    9334:	24c080e7          	jalr	588(ra) # ffc0157c <TENSIX_MAILBOX_BASE+0xffd4157c>
    9338:	fff00793          	li	a5, -1
/proj_sw/user_dev/jnie/budabackend/src/firmware/riscv/targets/erisc/src/erisc.cc:250

  uint8_t x = my_x[0];
  uint8_t y = my_y[0];


  bool skip_initial_epoch_dram_load = RISC_EPOCH_INFO_PTR->epoch_valid;
    933c:	00020737          	lui	a4, 0x20
/proj_sw/user_dev/jnie/budabackend/src/firmware/riscv/targets/erisc/src/erisc.cc:244
  LoopStack<4> loopstack;
    9340:	04f12e23          	sw	a5, 92(sp)
/proj_sw/user_dev/jnie/budabackend/src/firmware/riscv/targets/erisc/src/erisc.cc:250
  bool skip_initial_epoch_dram_load = RISC_EPOCH_INFO_PTR->epoch_valid;
    9344:	08c74783          	lbu	a5, 140(a4) # 2008c <risc_chip_specific.cc.5b7d4a1c+0x10b0>
get_epoch_index_x(int):
/proj_sw/user_dev/jnie/budabackend/src/firmware/riscv/wormhole/risc_chip_specific.cc:163
  return my_y;
#endif
}

int get_epoch_index_x(int my_x) {
  if (my_x >= 18 && my_x <= 21)
    9348:	fee98693          	addi	a3, s3, -18
    934c:	00300713          	li	a4, 3
ApplicationHandler():
/proj_sw/user_dev/jnie/budabackend/src/firmware/riscv/targets/erisc/src/erisc.cc:247
  uint8_t y = my_y[0];
    9350:	4284c603          	lbu	a2, 1064(s1)
/proj_sw/user_dev/jnie/budabackend/src/firmware/riscv/targets/erisc/src/erisc.cc:250
  bool skip_initial_epoch_dram_load = RISC_EPOCH_INFO_PTR->epoch_valid;
    9354:	00f037b3          	snez	a5, a5
    9358:	00f12023          	sw	a5, 0(sp)
risc_get_epoch_q_dram_ptr(unsigned long, unsigned long):
/proj_sw/user_dev/jnie/budabackend/src/firmware/riscv/common/risc_epoch.h:116
  ncrisc_noc_fast_write(loading_noc, NCRISC_SMALL_TXN_CMD_BUF, noc_write_dest_buf_ptr_addr, q_rd_ptr_addr, 4,
                        DRAM_PTR_UPDATE_VC, false, false, 1, NCRISC_WR_DEF_TRID);
}

inline uint64_t risc_get_epoch_q_dram_ptr(uint32_t my_x, uint32_t my_y) {
  my_x = get_epoch_index_x(my_x);
    935c:	00098793          	mv	a5, s3
get_epoch_index_x(int):
/proj_sw/user_dev/jnie/budabackend/src/firmware/riscv/wormhole/risc_chip_specific.cc:163
    9360:	3ed76663          	bltu	a4, a3, 974c <__firmware_global_pointer+0x34c>
/proj_sw/user_dev/jnie/budabackend/src/firmware/riscv/wormhole/risc_chip_specific.cc:164
    my_x -= 17;
    9364:	fef98793          	addi	a5, s3, -17
get_epoch_index_y(int):
/proj_sw/user_dev/jnie/budabackend/src/firmware/riscv/wormhole/risc_chip_specific.cc:172

  return my_x;
}

int get_epoch_index_y(int my_y) {
  if (my_y == 16)
    9368:	01000713          	li	a4, 16
    936c:	40e60063          	beq	a2, a4, 976c <__firmware_global_pointer+0x36c>
/proj_sw/user_dev/jnie/budabackend/src/firmware/riscv/wormhole/risc_chip_specific.cc:174
    my_y = 0;
  else if (my_y == 17)
    9370:	01100713          	li	a4, 17
    9374:	40e60063          	beq	a2, a4, 9774 <__firmware_global_pointer+0x374>
/proj_sw/user_dev/jnie/budabackend/src/firmware/riscv/wormhole/risc_chip_specific.cc:176
    my_y = 6;
  else if (my_y <= 22 && my_y > 17)
    9378:	fee60713          	addi	a4, a2, -18
    937c:	00400693          	li	a3, 4
    9380:	3ce6ee63          	bltu	a3, a4, 975c <__firmware_global_pointer+0x35c>
/proj_sw/user_dev/jnie/budabackend/src/firmware/riscv/wormhole/risc_chip_specific.cc:177
    my_y = (my_y - 17);
    9384:	fef60613          	addi	a2, a2, -17
risc_get_epoch_q_dram_ptr(unsigned long, unsigned long):
/proj_sw/user_dev/jnie/budabackend/src/firmware/riscv/common/risc_epoch.h:117
  my_y = get_epoch_index_y(my_y);
    9388:	00060593          	mv	a1, a2
/proj_sw/user_dev/jnie/budabackend/src/firmware/riscv/common/risc_epoch.h:118
  const uint64_t INITIAL_EPOCH_VECTOR_TABLE_ADDR = NOC_XY_ADDR(NOC_X(get_epoch_table_x(my_x, my_y)), NOC_Y(get_epoch_table_y(my_x, my_y)), EPOCH_TABLE_DRAM_ADDRESS);
    938c:	00090863          	beqz	s2, 939c <ApplicationHandler+0x35c>
    9390:	417bc703          	lbu	a4, 1047(s7)
    9394:	fff70713          	addi	a4, a4, -1
    9398:	40c70633          	sub	a2, a4, a2
    939c:	00a61613          	slli	a2, a2, 0xa
    93a0:	3c091e63          	bnez	s2, 977c <__firmware_global_pointer+0x37c>
get_epoch_table_x(int, int):
/proj_sw/user_dev/jnie/budabackend/src/firmware/riscv/wormhole/risc_chip_specific.cc:134
  if (my_x <= 4) {
    93a4:	00400693          	li	a3, 4
/proj_sw/user_dev/jnie/budabackend/src/firmware/riscv/wormhole/risc_chip_specific.cc:135
    epoch_x = 0;
    93a8:	00000713          	li	a4, 0
/proj_sw/user_dev/jnie/budabackend/src/firmware/riscv/wormhole/risc_chip_specific.cc:134
  if (my_x <= 4) {
    93ac:	00f6d463          	bge	a3, a5, 93b4 <ApplicationHandler+0x374>
/proj_sw/user_dev/jnie/budabackend/src/firmware/riscv/wormhole/risc_chip_specific.cc:137
    epoch_x = 5;
    93b0:	00500713          	li	a4, 5
risc_get_epoch_q_dram_ptr(unsigned long, unsigned long):
/proj_sw/user_dev/jnie/budabackend/src/firmware/riscv/common/risc_epoch.h:119
  uint64_t q_table_offset = INITIAL_EPOCH_VECTOR_TABLE_ADDR + ((my_y * epoch_queue::GridSizeCol) + my_x) * EPOCH_ENTRY_SIZE_BYTES;
    93b4:	00a00693          	li	a3, 10
    93b8:	02d585b3          	mul	a1, a1, a3
/proj_sw/user_dev/jnie/budabackend/src/firmware/riscv/common/risc_epoch.h:118
  const uint64_t INITIAL_EPOCH_VECTOR_TABLE_ADDR = NOC_XY_ADDR(NOC_X(get_epoch_table_x(my_x, my_y)), NOC_Y(get_epoch_table_y(my_x, my_y)), EPOCH_TABLE_DRAM_ADDRESS);
    93bc:	00471713          	slli	a4, a4, 0x4
/proj_sw/user_dev/jnie/budabackend/src/firmware/riscv/common/risc_epoch.h:119
  uint64_t q_table_offset = INITIAL_EPOCH_VECTOR_TABLE_ADDR + ((my_y * epoch_queue::GridSizeCol) + my_x) * EPOCH_ENTRY_SIZE_BYTES;
    93c0:	00f585b3          	add	a1, a1, a5
    93c4:	000027b7          	lui	a5, 0x2
/proj_sw/user_dev/jnie/budabackend/src/firmware/riscv/common/risc_epoch.h:118
  const uint64_t INITIAL_EPOCH_VECTOR_TABLE_ADDR = NOC_XY_ADDR(NOC_X(get_epoch_table_x(my_x, my_y)), NOC_Y(get_epoch_table_y(my_x, my_y)), EPOCH_TABLE_DRAM_ADDRESS);
    93c8:	00c76633          	or	a2, a4, a2
/proj_sw/user_dev/jnie/budabackend/src/firmware/riscv/common/risc_epoch.h:119
  uint64_t q_table_offset = INITIAL_EPOCH_VECTOR_TABLE_ADDR + ((my_y * epoch_queue::GridSizeCol) + my_x) * EPOCH_ENTRY_SIZE_BYTES;
    93cc:	02078793          	addi	a5, a5, 32 # 2020 <__firmware_start+0x20>
/proj_sw/user_dev/jnie/budabackend/src/firmware/riscv/common/risc_epoch.h:118
  const uint64_t INITIAL_EPOCH_VECTOR_TABLE_ADDR = NOC_XY_ADDR(NOC_X(get_epoch_table_x(my_x, my_y)), NOC_Y(get_epoch_table_y(my_x, my_y)), EPOCH_TABLE_DRAM_ADDRESS);
    93d0:	0070f737          	lui	a4, 0x70f
    93d4:	10070713          	addi	a4, a4, 256 # 70f100 <noc_nonblocking_api.cc.88b5909b+0x6ec37c>
/proj_sw/user_dev/jnie/budabackend/src/firmware/riscv/common/risc_epoch.h:119
  uint64_t q_table_offset = INITIAL_EPOCH_VECTOR_TABLE_ADDR + ((my_y * epoch_queue::GridSizeCol) + my_x) * EPOCH_ENTRY_SIZE_BYTES;
    93d8:	02f585b3          	mul	a1, a1, a5
    93dc:	00b705b3          	add	a1, a4, a1
ApplicationHandler():
/proj_sw/user_dev/jnie/budabackend/src/firmware/riscv/targets/erisc/src/erisc.cc:253
  my_q_table_offset = risc_get_epoch_q_dram_ptr(x, y);

  noc_read_scratch_buf[30] = my_q_table_offset >> 32;
    93e0:	0000f9b7          	lui	s3, 0xf
risc_get_epoch_q_dram_ptr(unsigned long, unsigned long):
/proj_sw/user_dev/jnie/budabackend/src/firmware/riscv/common/risc_epoch.h:119
    93e4:	00e5b733          	sltu	a4, a1, a4
    93e8:	00c70633          	add	a2, a4, a2
ApplicationHandler():
/proj_sw/user_dev/jnie/budabackend/src/firmware/riscv/targets/erisc/src/erisc.cc:253
    93ec:	44098793          	addi	a5, s3, 1088 # f440 <noc_read_scratch_buf>
    93f0:	06c7ac23          	sw	a2, 120(a5)
/proj_sw/user_dev/jnie/budabackend/src/firmware/riscv/targets/erisc/src/erisc.cc:251
  my_q_table_offset = risc_get_epoch_q_dram_ptr(x, y);
    93f4:	0000f4b7          	lui	s1, 0xf
/proj_sw/user_dev/jnie/budabackend/src/firmware/riscv/targets/erisc/src/erisc.cc:254
  noc_read_scratch_buf[31] = my_q_table_offset & 0xFFFFFFFF;
    93f8:	06b7ae23          	sw	a1, 124(a5)
risc_epoch_q_get_ptr(unsigned long volatile*, unsigned long long&, unsigned long&, unsigned long&):
/proj_sw/user_dev/jnie/budabackend/src/firmware/riscv/common/risc_epoch.h:128
inline void risc_epoch_q_get_ptr(volatile uint32_t *noc_read_scratch_buf, uint64_t &my_q_table_offset, uint32_t &my_q_rd_ptr, uint32_t &my_q_wr_ptr) {

  uint32_t noc_read_dest_buf_offset = my_q_table_offset % (NOC_WORD_BYTES);
  uint32_t noc_read_dest_buf_addr = (uint32_t)(noc_read_scratch_buf);
  uint32_t noc_read_dest_buf_ptr_addr = noc_read_dest_buf_addr+noc_read_dest_buf_offset;
  ncrisc_noc_fast_read_any_len(loading_noc, NCRISC_SMALL_TXN_CMD_BUF,
    93fc:	44098693          	addi	a3, s3, 1088

00009400 <__firmware_global_pointer>:
/proj_sw/user_dev/jnie/budabackend/src/firmware/riscv/common/risc_epoch.h:126
  uint32_t noc_read_dest_buf_addr = (uint32_t)(noc_read_scratch_buf);
    9400:	44098d93          	addi	s11, s3, 1088
/proj_sw/user_dev/jnie/budabackend/src/firmware/riscv/common/risc_epoch.h:128
  ncrisc_noc_fast_read_any_len(loading_noc, NCRISC_SMALL_TXN_CMD_BUF,
    9404:	00200793          	li	a5, 2
    9408:	00800713          	li	a4, 8
    940c:	00090513          	mv	a0, s2
    9410:	44098993          	addi	s3, s3, 1088
ApplicationHandler():
/proj_sw/user_dev/jnie/budabackend/src/firmware/riscv/targets/erisc/src/erisc.cc:251
  my_q_table_offset = risc_get_epoch_q_dram_ptr(x, y);
    9414:	42b4a023          	sw	a1, 1056(s1) # f420 <my_q_table_offset>
    9418:	42c4a223          	sw	a2, 1060(s1)
risc_epoch_q_get_ptr(unsigned long volatile*, unsigned long long&, unsigned long&, unsigned long&):
/proj_sw/user_dev/jnie/budabackend/src/firmware/riscv/common/risc_epoch.h:128
    941c:	ffbf7097          	auipc	ra, 0xffbf7
    9420:	38c080e7          	jalr	908(ra) # ffc007a8 <TENSIX_MAILBOX_BASE+0xffd407a8>
/proj_sw/user_dev/jnie/budabackend/src/firmware/riscv/common/risc_epoch.h:132
                               my_q_table_offset,
                               noc_read_dest_buf_ptr_addr,
                               8, NCRISC_RD_DEF_TRID);
  while (!ncrisc_noc_reads_flushed(loading_noc, NCRISC_RD_DEF_TRID));
    9424:	42a44503          	lbu	a0, 1066(s0)
    9428:	00200593          	li	a1, 2
    942c:	ffbf7097          	auipc	ra, 0xffbf7
    9430:	bd4080e7          	jalr	-1068(ra) # ffc00000 <TENSIX_MAILBOX_BASE+0xffd40000>
    9434:	00050c93          	mv	s9, a0
    9438:	fe0506e3          	beqz	a0, 9424 <__firmware_global_pointer+0x24>
/proj_sw/user_dev/jnie/budabackend/src/firmware/riscv/common/risc_epoch.h:134
  volatile uint32_t *noc_read_dest_buf_ptr = (volatile uint32_t *)(noc_read_dest_buf_ptr_addr); 
  my_q_rd_ptr = noc_read_dest_buf_ptr[0];
    943c:	0009a783          	lw	a5, 0(s3)
    9440:	0000f937          	lui	s2, 0xf
    9444:	40f92e23          	sw	a5, 1052(s2) # f41c <my_q_rd_ptr>
/proj_sw/user_dev/jnie/budabackend/src/firmware/riscv/common/risc_epoch.h:135
  my_q_wr_ptr = noc_read_dest_buf_ptr[1];
    9448:	0049a783          	lw	a5, 4(s3)
    944c:	0000fc37          	lui	s8, 0xf
    9450:	40fc2c23          	sw	a5, 1048(s8) # f418 <my_q_wr_ptr>
risc_is_epoch_q_empty(unsigned long volatile*, unsigned long long&, unsigned long&, unsigned long&, unsigned long&):
/proj_sw/user_dev/jnie/budabackend/src/firmware/riscv/common/risc_epoch.h:143
inline bool risc_is_epoch_q_empty(volatile uint32_t *noc_read_scratch_buf, uint64_t &my_q_table_offset, uint32_t &my_q_rd_ptr, uint32_t &my_q_wr_ptr, uint32_t &epoch_empty_check_cnt) {

  bool is_empty;

  if (dram_io_empty(my_q_rd_ptr, my_q_wr_ptr)) {
    if (risc_get_l1_epoch_q_wrptr() == epoch_queue::POLLING_EPOCH_QUEUE_TAG ? epoch_empty_check_cnt == 0 : !risc_is_l1_epoch_q_empty(my_q_rd_ptr)) {
    9454:	aca0d7b7          	lui	a5, 0xaca0d
    9458:	afe78793          	addi	a5, a5, -1282 # aca0cafe <TENSIX_MAILBOX_BASE+0xacb4cafe>
    945c:	00f12423          	sw	a5, 8(sp)
/proj_sw/user_dev/jnie/budabackend/src/firmware/riscv/common/risc_epoch.h:162
    }
  } else {
    is_empty = false;
  }

  epoch_empty_check_cnt = (epoch_empty_check_cnt + 1) & EPOCH_EMPTY_CHECK_MASK;
    9460:	000017b7          	lui	a5, 0x1
    9464:	fff78793          	addi	a5, a5, -1 # fff <__firmware_stack_size+0xbff>
    9468:	00f12223          	sw	a5, 4(sp)
RISC_POST_STATUS(unsigned long):
/proj_sw/user_dev/jnie/budabackend/src/firmware/riscv/targets/erisc/src/risc.h:26
    946c:	1bc2e7b7          	lui	a5, 0x1bc2e
    9470:	ead78793          	addi	a5, a5, -339 # 1bc2dead <noc_nonblocking_api.cc.88b5909b+0x1bc0b129>
    9474:	00f12623          	sw	a5, 12(sp)
risc_epoch_q_rdptr_update(unsigned long, unsigned long volatile*, unsigned long long&):
/proj_sw/user_dev/jnie/budabackend/src/firmware/riscv/common/risc_epoch.h:99
  uint32_t noc_write_dest_buf_addr = (uint32_t)(&(noc_read_scratch_buf[SCRATCH_PAD_DRAM_WRITE_IDX]));
    9478:	04098793          	addi	a5, s3, 64
RISC_POST_STATUS(unsigned long):
/proj_sw/user_dev/jnie/budabackend/src/firmware/riscv/targets/erisc/src/risc.h:26
    947c:	10000d37          	lui	s10, 0x10000
risc_epoch_q_rdptr_update(unsigned long, unsigned long volatile*, unsigned long long&):
/proj_sw/user_dev/jnie/budabackend/src/firmware/riscv/common/risc_epoch.h:99
    9480:	00f12823          	sw	a5, 16(sp)
risc_is_epoch_q_empty(unsigned long volatile*, unsigned long long&, unsigned long&, unsigned long&, unsigned long&):
/proj_sw/user_dev/jnie/budabackend/src/firmware/riscv/common/risc_epoch.h:142
  if (dram_io_empty(my_q_rd_ptr, my_q_wr_ptr)) {
    9484:	41c92783          	lw	a5, 1052(s2)
    9488:	418c2683          	lw	a3, 1048(s8)
/proj_sw/user_dev/jnie/budabackend/src/firmware/riscv/common/risc_epoch.h:159
    is_empty = false;
    948c:	00000713          	li	a4, 0
/proj_sw/user_dev/jnie/budabackend/src/firmware/riscv/common/risc_epoch.h:142
  if (dram_io_empty(my_q_rd_ptr, my_q_wr_ptr)) {
    9490:	06d79a63          	bne	a5, a3, 9504 <__firmware_global_pointer+0x104>
risc_get_l1_epoch_q_wrptr():
/proj_sw/user_dev/jnie/budabackend/src/firmware/riscv/common/risc_epoch.h:68
  return RISC_L1_EPOCH_Q_PTR->wr_ptr;
    9494:	00009737          	lui	a4, 0x9
    9498:	00472683          	lw	a3, 4(a4) # 9004 <__trisc_base+0x2404>
risc_is_epoch_q_empty(unsigned long volatile*, unsigned long long&, unsigned long&, unsigned long&, unsigned long&):
/proj_sw/user_dev/jnie/budabackend/src/firmware/riscv/common/risc_epoch.h:143
    if (risc_get_l1_epoch_q_wrptr() == epoch_queue::POLLING_EPOCH_QUEUE_TAG ? epoch_empty_check_cnt == 0 : !risc_is_l1_epoch_q_empty(my_q_rd_ptr)) {
    949c:	00812603          	lw	a2, 8(sp)
    94a0:	2ec69e63          	bne	a3, a2, 979c <__firmware_global_pointer+0x39c>
    94a4:	430aa783          	lw	a5, 1072(s5)
    94a8:	0017b793          	seqz	a5, a5
/proj_sw/user_dev/jnie/budabackend/src/firmware/riscv/common/risc_epoch.h:156
      is_empty = true;
    94ac:	000c8713          	mv	a4, s9
/proj_sw/user_dev/jnie/budabackend/src/firmware/riscv/common/risc_epoch.h:143
    if (risc_get_l1_epoch_q_wrptr() == epoch_queue::POLLING_EPOCH_QUEUE_TAG ? epoch_empty_check_cnt == 0 : !risc_is_l1_epoch_q_empty(my_q_rd_ptr)) {
    94b0:	04078a63          	beqz	a5, 9504 <__firmware_global_pointer+0x104>
/proj_sw/user_dev/jnie/budabackend/src/firmware/riscv/common/risc_epoch.h:144
      uint32_t noc_read_dest_buf_offset = my_q_table_offset % (NOC_WORD_BYTES);
    94b4:	4204a583          	lw	a1, 1056(s1)
/proj_sw/user_dev/jnie/budabackend/src/firmware/riscv/common/risc_epoch.h:147
      ncrisc_noc_fast_read_any_len(loading_noc, NCRISC_SMALL_TXN_CMD_BUF,
    94b8:	4244a603          	lw	a2, 1060(s1)
/proj_sw/user_dev/jnie/budabackend/src/firmware/riscv/common/risc_epoch.h:144
      uint32_t noc_read_dest_buf_offset = my_q_table_offset % (NOC_WORD_BYTES);
    94bc:	01f5fa13          	andi	s4, a1, 31
/proj_sw/user_dev/jnie/budabackend/src/firmware/riscv/common/risc_epoch.h:146
      uint32_t noc_read_dest_buf_ptr_addr = noc_read_dest_buf_addr+noc_read_dest_buf_offset;
    94c0:	01ba0a33          	add	s4, s4, s11
/proj_sw/user_dev/jnie/budabackend/src/firmware/riscv/common/risc_epoch.h:147
      ncrisc_noc_fast_read_any_len(loading_noc, NCRISC_SMALL_TXN_CMD_BUF,
    94c4:	42a44503          	lbu	a0, 1066(s0)
    94c8:	00200793          	li	a5, 2
    94cc:	00800713          	li	a4, 8
    94d0:	000a0693          	mv	a3, s4
    94d4:	ffbf7097          	auipc	ra, 0xffbf7
    94d8:	2d4080e7          	jalr	724(ra) # ffc007a8 <TENSIX_MAILBOX_BASE+0xffd407a8>
/proj_sw/user_dev/jnie/budabackend/src/firmware/riscv/common/risc_epoch.h:151
      while (!ncrisc_noc_reads_flushed(loading_noc, NCRISC_RD_DEF_TRID));
    94dc:	42a44503          	lbu	a0, 1066(s0)
    94e0:	00200593          	li	a1, 2
    94e4:	ffbf7097          	auipc	ra, 0xffbf7
    94e8:	b1c080e7          	jalr	-1252(ra) # ffc00000 <TENSIX_MAILBOX_BASE+0xffd40000>
    94ec:	fe0508e3          	beqz	a0, 94dc <__firmware_global_pointer+0xdc>
/proj_sw/user_dev/jnie/budabackend/src/firmware/riscv/common/risc_epoch.h:153
      my_q_wr_ptr = noc_read_dest_buf_ptr[1];
    94f0:	004a2783          	lw	a5, 4(s4)
dram_io_empty(unsigned long, unsigned long):
/proj_sw/user_dev/jnie/budabackend/src/firmware/riscv/common/risc_common.h:71
  }
  return next_ptr;
}

inline __attribute__((always_inline)) uint32_t dram_io_empty(uint32_t rd_ptr, uint32_t wr_ptr) {
  return (rd_ptr == wr_ptr);
    94f4:	41c92703          	lw	a4, 1052(s2)
risc_is_epoch_q_empty(unsigned long volatile*, unsigned long long&, unsigned long&, unsigned long&, unsigned long&):
/proj_sw/user_dev/jnie/budabackend/src/firmware/riscv/common/risc_epoch.h:153
    94f8:	40fc2c23          	sw	a5, 1048(s8)
dram_io_empty(unsigned long, unsigned long):
/proj_sw/user_dev/jnie/budabackend/src/firmware/riscv/common/risc_common.h:71
    94fc:	40f70733          	sub	a4, a4, a5
    9500:	00173713          	seqz	a4, a4
risc_is_epoch_q_empty(unsigned long volatile*, unsigned long long&, unsigned long&, unsigned long&, unsigned long&):
/proj_sw/user_dev/jnie/budabackend/src/firmware/riscv/common/risc_epoch.h:162
  epoch_empty_check_cnt = (epoch_empty_check_cnt + 1) & EPOCH_EMPTY_CHECK_MASK;
    9504:	430aa783          	lw	a5, 1072(s5)
    9508:	00412683          	lw	a3, 4(sp)
    950c:	00178793          	addi	a5, a5, 1
    9510:	00d7f7b3          	and	a5, a5, a3
    9514:	42faa823          	sw	a5, 1072(s5)
ApplicationHandler():
/proj_sw/user_dev/jnie/budabackend/src/firmware/riscv/targets/erisc/src/erisc.cc:260

  risc_epoch_q_get_ptr(noc_read_scratch_buf, my_q_table_offset, my_q_rd_ptr, my_q_wr_ptr);
  int exec_iteration = NUM_EXEC_LOOP_ITERATIONS;

  do {
    if (!risc_is_epoch_q_empty(noc_read_scratch_buf, my_q_table_offset, my_q_rd_ptr, my_q_wr_ptr, epoch_empty_check_cnt) || exec_iteration < NUM_EXEC_LOOP_ITERATIONS) {
    9518:	2a071063          	bnez	a4, 97b8 <__firmware_global_pointer+0x3b8>
risc_get_epoch_dram_ptr(unsigned long&, unsigned long&, unsigned long volatile*, unsigned long long&, unsigned long&, unsigned long&):
/proj_sw/user_dev/jnie/budabackend/src/firmware/riscv/common/risc_epoch.h:193
  dram_coord_y = (noc_read_dest_buf_ptr[1] >> 22) & 0x3F;
}

inline uint64_t risc_get_epoch_dram_ptr(uint32_t &epoch_command, uint32_t &dram_decouple_mask, volatile uint32_t *noc_read_scratch_buf, uint64_t &my_q_table_offset, uint32_t &my_q_rd_ptr, uint32_t &num_loops) {

  uint64_t my_q_entry_offset = (my_q_rd_ptr & (EPOCH_QUEUE_NUM_SLOTS-1)) * epoch_queue::EPOCH_Q_SLOT_SIZE + epoch_queue::EPOCH_Q_SLOTS_OFFSET + my_q_table_offset;
    951c:	41c94783          	lbu	a5, 1052(s2)
    9520:	4204a583          	lw	a1, 1056(s1)
    9524:	00178793          	addi	a5, a5, 1
    9528:	00579793          	slli	a5, a5, 0x5
    952c:	00b785b3          	add	a1, a5, a1
    9530:	4244a503          	lw	a0, 1060(s1)
    9534:	00f5b633          	sltu	a2, a1, a5
/proj_sw/user_dev/jnie/budabackend/src/firmware/riscv/common/risc_epoch.h:194
  uint32_t noc_read_dest_buf_offset = my_q_entry_offset % (NOC_WORD_BYTES);
    9538:	01f5f693          	andi	a3, a1, 31
/proj_sw/user_dev/jnie/budabackend/src/firmware/riscv/common/risc_epoch.h:196
  uint32_t noc_read_dest_buf_addr = (uint32_t)(noc_read_scratch_buf);
  uint32_t noc_read_dest_buf_ptr_addr = noc_read_dest_buf_addr+noc_read_dest_buf_offset;
    953c:	01b689b3          	add	s3, a3, s11
/proj_sw/user_dev/jnie/budabackend/src/firmware/riscv/common/risc_epoch.h:197
  ncrisc_noc_fast_read_any_len(loading_noc, NCRISC_SMALL_TXN_CMD_BUF,
    9540:	00a60633          	add	a2, a2, a0
    9544:	42a44503          	lbu	a0, 1066(s0)
    9548:	00200793          	li	a5, 2
    954c:	02000713          	li	a4, 32
    9550:	00098693          	mv	a3, s3
    9554:	ffbf7097          	auipc	ra, 0xffbf7
    9558:	254080e7          	jalr	596(ra) # ffc007a8 <TENSIX_MAILBOX_BASE+0xffd407a8>
/proj_sw/user_dev/jnie/budabackend/src/firmware/riscv/common/risc_epoch.h:201
                               my_q_entry_offset,
                               noc_read_dest_buf_ptr_addr,
                               32, NCRISC_RD_DEF_TRID);
  while (!ncrisc_noc_reads_flushed(loading_noc, NCRISC_RD_DEF_TRID));
    955c:	42a44503          	lbu	a0, 1066(s0)
    9560:	00200593          	li	a1, 2
    9564:	ffbf7097          	auipc	ra, 0xffbf7
    9568:	a9c080e7          	jalr	-1380(ra) # ffc00000 <TENSIX_MAILBOX_BASE+0xffd40000>
    956c:	fe0508e3          	beqz	a0, 955c <__firmware_global_pointer+0x15c>
risc_get_noc_addr_from_dram_ptr(unsigned long volatile* rvtt_l1_ptr, unsigned long long&, unsigned long&, unsigned long&):
/proj_sw/user_dev/jnie/budabackend/src/firmware/riscv/common/risc_epoch.h:168
  uint64_t dram_addr_offset_lo = noc_read_dest_buf_ptr[0];
    9570:	0009a583          	lw	a1, 0(s3)
/proj_sw/user_dev/jnie/budabackend/src/firmware/riscv/common/risc_epoch.h:169
  uint64_t dram_addr_offset_hi = noc_read_dest_buf_ptr[1] & 0xFFFF;
    9574:	0049a803          	lw	a6, 4(s3)
/proj_sw/user_dev/jnie/budabackend/src/firmware/riscv/common/risc_epoch.h:171
  dram_coord_x = (noc_read_dest_buf_ptr[1] >> 16) & 0x3F;
    9578:	0049a783          	lw	a5, 4(s3)
/proj_sw/user_dev/jnie/budabackend/src/firmware/riscv/common/risc_epoch.h:172
  dram_coord_y = (noc_read_dest_buf_ptr[1] >> 22) & 0x3F;
    957c:	0049a603          	lw	a2, 4(s3)
risc_get_epoch_dram_ptr(unsigned long&, unsigned long&, unsigned long volatile*, unsigned long long&, unsigned long&, unsigned long&):
/proj_sw/user_dev/jnie/budabackend/src/firmware/riscv/common/risc_epoch.h:207
  volatile uint32_t *noc_read_dest_buf_ptr = (uint32_t *)(noc_read_dest_buf_ptr_addr); 
  uint64_t dram_addr_offset;
  uint32_t dram_coord_x;
  uint32_t dram_coord_y;
  risc_get_noc_addr_from_dram_ptr(noc_read_dest_buf_ptr, dram_addr_offset, dram_coord_x, dram_coord_y);
  epoch_command = (noc_read_dest_buf_ptr[1] >> 28) & 0xF;
    9580:	0049aa03          	lw	s4, 4(s3)
risc_get_noc_addr_from_dram_ptr(unsigned long volatile* rvtt_l1_ptr, unsigned long long&, unsigned long&, unsigned long&):
/proj_sw/user_dev/jnie/budabackend/src/firmware/riscv/common/risc_epoch.h:171
  dram_coord_x = (noc_read_dest_buf_ptr[1] >> 16) & 0x3F;
    9584:	0107d793          	srli	a5, a5, 0x10
    9588:	03f7f893          	andi	a7, a5, 63
/proj_sw/user_dev/jnie/budabackend/src/firmware/riscv/common/risc_epoch.h:172
  dram_coord_y = (noc_read_dest_buf_ptr[1] >> 22) & 0x3F;
    958c:	01665613          	srli	a2, a2, 0x16
risc_get_epoch_dram_ptr(unsigned long&, unsigned long&, unsigned long volatile*, unsigned long long&, unsigned long&, unsigned long&):
/proj_sw/user_dev/jnie/budabackend/src/firmware/riscv/common/risc_epoch.h:207
  epoch_command = (noc_read_dest_buf_ptr[1] >> 28) & 0xF;
    9590:	01ca5a13          	srli	s4, s4, 0x1c
/proj_sw/user_dev/jnie/budabackend/src/firmware/riscv/common/risc_epoch.h:208
  num_loops = (epoch_command == epoch_queue::EpochCmdLoopStart) ? noc_read_dest_buf_ptr[1] & 0xFFFFFFF : 1;
    9594:	00500793          	li	a5, 5
risc_get_noc_addr_from_dram_ptr(unsigned long volatile* rvtt_l1_ptr, unsigned long long&, unsigned long&, unsigned long&):
/proj_sw/user_dev/jnie/budabackend/src/firmware/riscv/common/risc_epoch.h:172
  dram_coord_y = (noc_read_dest_buf_ptr[1] >> 22) & 0x3F;
    9598:	03f67613          	andi	a2, a2, 63
risc_get_epoch_dram_ptr(unsigned long&, unsigned long&, unsigned long volatile*, unsigned long long&, unsigned long&, unsigned long&):
/proj_sw/user_dev/jnie/budabackend/src/firmware/riscv/common/risc_epoch.h:208
  num_loops = (epoch_command == epoch_queue::EpochCmdLoopStart) ? noc_read_dest_buf_ptr[1] & 0xFFFFFFF : 1;
    959c:	00100513          	li	a0, 1
    95a0:	00fa1863          	bne	s4, a5, 95b0 <__firmware_global_pointer+0x1b0>
    95a4:	0049a503          	lw	a0, 4(s3)
    95a8:	fffd0793          	addi	a5, s10, -1 # fffffff <noc_nonblocking_api.cc.88b5909b+0xffdd27b>
    95ac:	00f57533          	and	a0, a0, a5
/proj_sw/user_dev/jnie/budabackend/src/firmware/riscv/common/risc_epoch.h:221
#else
  PERF_RISC_MAILBOX_INPUT_DECOUPLE_MASK_PTR[0] = 0;
  PERF_RISC_MAILBOX_OUTPUT_DECOUPLE_MASK_PTR[0] = 0;
#endif
#endif
  return NOC_XY_ADDR(NOC_X(dram_coord_x), NOC_Y(dram_coord_y), dram_addr_offset);
    95b0:	42a44783          	lbu	a5, 1066(s0)
    95b4:	1e078c63          	beqz	a5, 97ac <__firmware_global_pointer+0x3ac>
    95b8:	417bc703          	lbu	a4, 1047(s7)
    95bc:	416b4783          	lbu	a5, 1046(s6)
    95c0:	fff70713          	addi	a4, a4, -1
    95c4:	fff78793          	addi	a5, a5, -1
    95c8:	40c70633          	sub	a2, a4, a2
    95cc:	411787b3          	sub	a5, a5, a7
    95d0:	00a61613          	slli	a2, a2, 0xa
    95d4:	00479893          	slli	a7, a5, 0x4
LoopStack<4>::is_empty():
/proj_sw/user_dev/jnie/budabackend/src/firmware/riscv/common/risc_epoch.h:54
      return ptr < 0 ? true : false;
    95d8:	05c12783          	lw	a5, 92(sp)
ApplicationHandler():
/proj_sw/user_dev/jnie/budabackend/src/firmware/riscv/targets/erisc/src/erisc.cc:277
        }
      } else if (epoch_queue::EpochCmdValid == epoch_command) {
        exec_iteration++;
      }

      uint32_t loop_iteration = loopstack.is_empty() ? 0 : loopstack.top()->curr_iter;
    95dc:	00000713          	li	a4, 0
    95e0:	0207c063          	bltz	a5, 9600 <__firmware_global_pointer+0x200>
/proj_sw/user_dev/jnie/budabackend/src/firmware/riscv/common/risc_epoch.h:41
        if (ptr < 0) return nullptr;
    95e4:	00000713          	li	a4, 0
LoopStack<4>::top():
/proj_sw/user_dev/jnie/budabackend/src/firmware/riscv/common/risc_epoch.h:41
    95e8:	0007ca63          	bltz	a5, 95fc <__firmware_global_pointer+0x1fc>
/proj_sw/user_dev/jnie/budabackend/src/firmware/riscv/common/risc_epoch.h:42
        return &table[ptr];
    95ec:	00c00713          	li	a4, 12
    95f0:	02e78733          	mul	a4, a5, a4
    95f4:	02c10693          	addi	a3, sp, 44
    95f8:	00e68733          	add	a4, a3, a4
ApplicationHandler():
/proj_sw/user_dev/jnie/budabackend/src/firmware/riscv/targets/erisc/src/erisc.cc:277
    95fc:	00072703          	lw	a4, 0(a4)
/proj_sw/user_dev/jnie/budabackend/src/firmware/riscv/targets/erisc/src/erisc.cc:277 (discriminator 4)
    9600:	02e12423          	sw	a4, 40(sp)
/proj_sw/user_dev/jnie/budabackend/src/firmware/riscv/targets/erisc/src/erisc.cc:279 (discriminator 4)

      if (epoch_queue::EpochCmdValid == epoch_command) {
    9604:	00100713          	li	a4, 1
    9608:	1cea1263          	bne	s4, a4, 97cc <__firmware_global_pointer+0x3cc>
RISC_POST_STATUS(unsigned long):
/proj_sw/user_dev/jnie/budabackend/src/firmware/riscv/targets/erisc/src/risc.h:26
    960c:	101d0713          	addi	a4, s10, 257
    9610:	ffb207b7          	lui	a5, 0xffb20
    9614:	10e7a623          	sw	a4, 268(a5) # ffb2010c <TENSIX_MAILBOX_BASE+0xffc6010c>
risc_get_noc_addr_from_dram_ptr(unsigned long volatile* rvtt_l1_ptr, unsigned long long&, unsigned long&, unsigned long&):
/proj_sw/user_dev/jnie/budabackend/src/firmware/riscv/common/risc_epoch.h:169
  uint64_t dram_addr_offset_hi = noc_read_dest_buf_ptr[1] & 0xFFFF;
    9618:	01081793          	slli	a5, a6, 0x10
    961c:	0107d793          	srli	a5, a5, 0x10
risc_get_epoch_dram_ptr(unsigned long&, unsigned long&, unsigned long volatile*, unsigned long long&, unsigned long&, unsigned long&):
/proj_sw/user_dev/jnie/budabackend/src/firmware/riscv/common/risc_epoch.h:221
  return NOC_XY_ADDR(NOC_X(dram_coord_x), NOC_Y(dram_coord_y), dram_addr_offset);
    9620:	00c7e633          	or	a2, a5, a2
ApplicationHandler():
/proj_sw/user_dev/jnie/budabackend/src/firmware/riscv/targets/erisc/src/erisc.cc:282
        RISC_POST_STATUS(0x10000100 | exec_iteration);
        bool skip_kernels = true;
        run_epoch(
    9624:	00012503          	lw	a0, 0(sp)
    9628:	00000693          	li	a3, 0
    962c:	01166633          	or	a2, a2, a7
    9630:	755020ef          	jal	ra, c584 <run_epoch(void (*)(unsigned long long), void (*)(unsigned long long), void (*)(unsigned long long, unsigned long), void (*)(void*, unsigned long), bool, unsigned long long, bool&, unsigned long volatile&, unsigned long volatile&, unsigned long&, kernel_input_stream_state_t*, unsigned long&, kernel_output_stream_state_t*, unsigned long&, unsigned long&, unsigned long&, unsigned long&, unsigned long&, dram_q_state_t* rvtt_l1_ptr, dram_input_stream_state_t*, dram_output_stream_state_t*, active_stream_info_t* rvtt_l1_ptr, epoch_stream_info_t* rvtt_l1_ptr* rvtt_l1_ptr, active_stream_info_t** rvtt_l1_ptr, unsigned long) [clone .constprop.0]>
/proj_sw/user_dev/jnie/budabackend/src/firmware/riscv/targets/erisc/src/erisc.cc:295
            num_output_streams, output_stream_state,
            num_dram_input_streams, num_dram_output_streams, num_active_streams, num_active_dram_queues, num_dram_prefetch_streams,
            dram_q_state, dram_input_stream_state, dram_output_stream_state, active_stream_info,
            dram_prefetch_epoch_stream_info, dram_prefetch_active_stream_info, dram_decouple_mask
        );
        RISC_EPOCH_INFO_PTR->all_streams_and_kernels_done = 0;
    9634:	000207b7          	lui	a5, 0x20
    9638:	08078723          	sb	zero, 142(a5) # 2008e <risc_chip_specific.cc.5b7d4a1c+0x10b2>
/proj_sw/user_dev/jnie/budabackend/src/firmware/riscv/targets/erisc/src/erisc.cc:327
      epoch_empty_check_cnt = 0;

      RISC_POST_DEBUG(0x10000005 | (exec_iteration << 12));

      if (exec_iteration == NUM_EXEC_LOOP_ITERATIONS) {
        my_q_rd_ptr = dram_io_incr_ptr(my_q_rd_ptr, 1, EPOCH_QUEUE_NUM_SLOTS);
    963c:	41c92703          	lw	a4, 1052(s2)
/proj_sw/user_dev/jnie/budabackend/src/firmware/riscv/targets/erisc/src/erisc.cc:322
      epoch_empty_check_cnt = 0;
    9640:	420aa823          	sw	zero, 1072(s5)
dram_io_incr_ptr(unsigned long, unsigned long, unsigned long):
/proj_sw/user_dev/jnie/budabackend/src/firmware/riscv/common/risc_common.h:53
  uint32_t next_ptr = curr_ptr + incr;
    9644:	00170793          	addi	a5, a4, 1
/proj_sw/user_dev/jnie/budabackend/src/firmware/riscv/common/risc_common.h:55
  if (next_ptr >= double_buf_size_q_slots) {
    9648:	1ff00693          	li	a3, 511
    964c:	00f6f463          	bgeu	a3, a5, 9654 <__firmware_global_pointer+0x254>
/proj_sw/user_dev/jnie/budabackend/src/firmware/riscv/common/risc_common.h:56
    next_ptr -= double_buf_size_q_slots;
    9650:	e0170793          	addi	a5, a4, -511
LoopStack<4>::is_empty():
/proj_sw/user_dev/jnie/budabackend/src/firmware/riscv/common/risc_epoch.h:54
      return ptr < 0 ? true : false;
    9654:	05c12703          	lw	a4, 92(sp)
ApplicationHandler():
/proj_sw/user_dev/jnie/budabackend/src/firmware/riscv/targets/erisc/src/erisc.cc:327
        my_q_rd_ptr = dram_io_incr_ptr(my_q_rd_ptr, 1, EPOCH_QUEUE_NUM_SLOTS);
    9658:	40f92e23          	sw	a5, 1052(s2)
/proj_sw/user_dev/jnie/budabackend/src/firmware/riscv/targets/erisc/src/erisc.cc:329
        // Only update rdptr in L1 and DRAM when all generic-looping-on-device loops have been exited.
        if (loopstack.is_empty()){
    965c:	06075663          	bgez	a4, 96c8 <__firmware_global_pointer+0x2c8>
risc_epoch_q_rdptr_update(unsigned long, unsigned long volatile*, unsigned long long&):
/proj_sw/user_dev/jnie/budabackend/src/firmware/riscv/common/risc_epoch.h:98
  uint32_t noc_write_dest_buf_offset = my_q_table_offset % (NOC_WORD_BYTES);
    9660:	4204a683          	lw	a3, 1056(s1)
/proj_sw/user_dev/jnie/budabackend/src/firmware/riscv/common/risc_epoch.h:100
  uint32_t noc_write_dest_buf_ptr_addr = noc_write_dest_buf_addr+noc_write_dest_buf_offset;
    9664:	01012583          	lw	a1, 16(sp)
risc_l1_epoch_q_rdptr_update(unsigned long):
/proj_sw/user_dev/jnie/budabackend/src/firmware/riscv/common/risc_epoch.h:72
  RISC_L1_EPOCH_Q_PTR->rd_ptr = rd_ptr;
    9668:	00009737          	lui	a4, 0x9
risc_epoch_q_rdptr_update(unsigned long, unsigned long volatile*, unsigned long long&):
/proj_sw/user_dev/jnie/budabackend/src/firmware/riscv/common/risc_epoch.h:98
  uint32_t noc_write_dest_buf_offset = my_q_table_offset % (NOC_WORD_BYTES);
    966c:	01f6f613          	andi	a2, a3, 31
risc_l1_epoch_q_rdptr_update(unsigned long):
/proj_sw/user_dev/jnie/budabackend/src/firmware/riscv/common/risc_epoch.h:72
  RISC_L1_EPOCH_Q_PTR->rd_ptr = rd_ptr;
    9670:	00f72023          	sw	a5, 0(a4) # 9000 <__trisc_base+0x2400>
risc_epoch_q_rdptr_update(unsigned long, unsigned long volatile*, unsigned long long&):
/proj_sw/user_dev/jnie/budabackend/src/firmware/riscv/common/risc_epoch.h:100
  uint32_t noc_write_dest_buf_ptr_addr = noc_write_dest_buf_addr+noc_write_dest_buf_offset;
    9674:	00b60633          	add	a2, a2, a1
/proj_sw/user_dev/jnie/budabackend/src/firmware/riscv/common/risc_epoch.h:98
  uint32_t noc_write_dest_buf_offset = my_q_table_offset % (NOC_WORD_BYTES);
    9678:	4244a703          	lw	a4, 1060(s1)
/proj_sw/user_dev/jnie/budabackend/src/firmware/riscv/common/risc_epoch.h:102
  *noc_write_dest_buf_ptr = rd_ptr;
    967c:	00f62023          	sw	a5, 0(a2)
/proj_sw/user_dev/jnie/budabackend/src/firmware/riscv/common/risc_epoch.h:110
  while (!ncrisc_noc_fast_write_ok(loading_noc, NCRISC_SMALL_TXN_CMD_BUF));
    9680:	42a44503          	lbu	a0, 1066(s0)
    9684:	00300593          	li	a1, 3
    9688:	00e12e23          	sw	a4, 28(sp)
    968c:	00d12c23          	sw	a3, 24(sp)
    9690:	00c12a23          	sw	a2, 20(sp)
    9694:	ffbf7097          	auipc	ra, 0xffbf7
    9698:	990080e7          	jalr	-1648(ra) # ffc00024 <TENSIX_MAILBOX_BASE+0xffd40024>
    969c:	01412603          	lw	a2, 20(sp)
    96a0:	01812683          	lw	a3, 24(sp)
    96a4:	01c12703          	lw	a4, 28(sp)
    96a8:	fc050ce3          	beqz	a0, 9680 <__firmware_global_pointer+0x280>
/proj_sw/user_dev/jnie/budabackend/src/firmware/riscv/common/risc_epoch.h:111
  ncrisc_noc_fast_write(loading_noc, NCRISC_SMALL_TXN_CMD_BUF, noc_write_dest_buf_ptr_addr, q_rd_ptr_addr, 4,
    96ac:	42a44503          	lbu	a0, 1066(s0)
    96b0:	00000893          	li	a7, 0
    96b4:	00100813          	li	a6, 1
    96b8:	00400793          	li	a5, 4
    96bc:	00300593          	li	a1, 3
    96c0:	ffbf7097          	auipc	ra, 0xffbf7
    96c4:	294080e7          	jalr	660(ra) # ffc00954 <TENSIX_MAILBOX_BASE+0xffd40954>
RISC_POST_STATUS(unsigned long):
/proj_sw/user_dev/jnie/budabackend/src/firmware/riscv/targets/erisc/src/risc.h:26
    96c8:	10000737          	lui	a4, 0x10000
    96cc:	ffb207b7          	lui	a5, 0xffb20
    96d0:	00670713          	addi	a4, a4, 6 # 10000006 <noc_nonblocking_api.cc.88b5909b+0xffdd282>
    96d4:	10e7a623          	sw	a4, 268(a5) # ffb2010c <TENSIX_MAILBOX_BASE+0xffc6010c>
ApplicationHandler():
/proj_sw/user_dev/jnie/budabackend/src/firmware/riscv/targets/erisc/src/erisc.cc:336
          risc_epoch_q_rdptr_update(my_q_rd_ptr, noc_read_scratch_buf, my_q_table_offset);
        }
        RISC_POST_STATUS(0x10000006);
      }

      if (epoch_queue::EpochCmdEndProgram == epoch_command) {
    96d8:	00f00793          	li	a5, 15
    96dc:	dafa14e3          	bne	s4, a5, 9484 <__firmware_global_pointer+0x84>
/proj_sw/user_dev/jnie/budabackend/src/firmware/riscv/targets/erisc/src/erisc.cc:339
        // Make sure all pending NOC writes, particularly my_q_rd_ptr update
        // above have been flushed before signaling end of program.
        while (!ncrisc_noc_nonposted_writes_flushed(loading_noc, NCRISC_WR_DEF_TRID));
    96e0:	42a44503          	lbu	a0, 1066(s0)
    96e4:	00000593          	li	a1, 0
    96e8:	ffbf7097          	auipc	ra, 0xffbf7
    96ec:	918080e7          	jalr	-1768(ra) # ffc00000 <TENSIX_MAILBOX_BASE+0xffd40000>
    96f0:	fe0508e3          	beqz	a0, 96e0 <__firmware_global_pointer+0x2e0>
/proj_sw/user_dev/jnie/budabackend/src/firmware/riscv/targets/erisc/src/erisc.cc:340
        RISC_EPOCH_INFO_PTR->end_program = 1;
    96f4:	000207b7          	lui	a5, 0x20
    96f8:	00100713          	li	a4, 1
    96fc:	08e787a3          	sb	a4, 143(a5) # 2008f <risc_chip_specific.cc.5b7d4a1c+0x10b3>
RISC_POST_STATUS(unsigned long):
/proj_sw/user_dev/jnie/budabackend/src/firmware/riscv/targets/erisc/src/risc.h:26
    9700:	200007b7          	lui	a5, 0x20000
ApplicationHandler():
/proj_sw/user_dev/jnie/budabackend/src/firmware/riscv/targets/erisc/src/erisc.cc:349
    } else {
      RISC_POST_STATUS(0x1BC2DEAD);
      risc_context_switch();
    }
  } while (true);
}
    9704:	09c12083          	lw	ra, 156(sp)
    9708:	09812403          	lw	s0, 152(sp)
RISC_POST_STATUS(unsigned long):
/proj_sw/user_dev/jnie/budabackend/src/firmware/riscv/targets/erisc/src/risc.h:26
    970c:	ffb20737          	lui	a4, 0xffb20
    9710:	ff178793          	addi	a5, a5, -15 # 1ffffff1 <noc_nonblocking_api.cc.88b5909b+0x1ffdd26d>
    9714:	10f72623          	sw	a5, 268(a4) # ffb2010c <TENSIX_MAILBOX_BASE+0xffc6010c>
ApplicationHandler():
/proj_sw/user_dev/jnie/budabackend/src/firmware/riscv/targets/erisc/src/erisc.cc:349
    9718:	09412483          	lw	s1, 148(sp)
    971c:	09012903          	lw	s2, 144(sp)
    9720:	08c12983          	lw	s3, 140(sp)
    9724:	08812a03          	lw	s4, 136(sp)
    9728:	08412a83          	lw	s5, 132(sp)
    972c:	08012b03          	lw	s6, 128(sp)
    9730:	07c12b83          	lw	s7, 124(sp)
    9734:	07812c03          	lw	s8, 120(sp)
    9738:	07412c83          	lw	s9, 116(sp)
    973c:	07012d03          	lw	s10, 112(sp)
    9740:	06c12d83          	lw	s11, 108(sp)
    9744:	0a010113          	addi	sp, sp, 160
    9748:	00008067          	ret
get_epoch_index_x(int):
/proj_sw/user_dev/jnie/budabackend/src/firmware/riscv/wormhole/risc_chip_specific.cc:165
  else if (my_x > 21)
    974c:	01500713          	li	a4, 21
    9750:	c1375ce3          	bge	a4, s3, 9368 <ApplicationHandler+0x328>
/proj_sw/user_dev/jnie/budabackend/src/firmware/riscv/wormhole/risc_chip_specific.cc:166
    my_x -= 16;
    9754:	ff098793          	addi	a5, s3, -16
    9758:	c11ff06f          	j	9368 <ApplicationHandler+0x328>
get_epoch_index_y(int):
/proj_sw/user_dev/jnie/budabackend/src/firmware/riscv/wormhole/risc_chip_specific.cc:178
  else if (my_y > 22)
    975c:	01600713          	li	a4, 22
    9760:	c2c754e3          	bge	a4, a2, 9388 <ApplicationHandler+0x348>
/proj_sw/user_dev/jnie/budabackend/src/firmware/riscv/wormhole/risc_chip_specific.cc:179
    my_y = (my_y - 16);
    9764:	ff060613          	addi	a2, a2, -16
    9768:	c21ff06f          	j	9388 <ApplicationHandler+0x348>
/proj_sw/user_dev/jnie/budabackend/src/firmware/riscv/wormhole/risc_chip_specific.cc:173
    my_y = 0;
    976c:	00000613          	li	a2, 0
    9770:	c19ff06f          	j	9388 <ApplicationHandler+0x348>
/proj_sw/user_dev/jnie/budabackend/src/firmware/riscv/wormhole/risc_chip_specific.cc:175
    my_y = 6;
    9774:	00600613          	li	a2, 6
    9778:	c11ff06f          	j	9388 <ApplicationHandler+0x348>
risc_get_epoch_q_dram_ptr(unsigned long, unsigned long):
/proj_sw/user_dev/jnie/budabackend/src/firmware/riscv/common/risc_epoch.h:118
  const uint64_t INITIAL_EPOCH_VECTOR_TABLE_ADDR = NOC_XY_ADDR(NOC_X(get_epoch_table_x(my_x, my_y)), NOC_Y(get_epoch_table_y(my_x, my_y)), EPOCH_TABLE_DRAM_ADDRESS);
    977c:	416b4703          	lbu	a4, 1046(s6)
get_epoch_table_x(int, int):
/proj_sw/user_dev/jnie/budabackend/src/firmware/riscv/wormhole/risc_chip_specific.cc:134
  if (my_x <= 4) {
    9780:	00400513          	li	a0, 4
risc_get_epoch_q_dram_ptr(unsigned long, unsigned long):
/proj_sw/user_dev/jnie/budabackend/src/firmware/riscv/common/risc_epoch.h:118
    9784:	fff70713          	addi	a4, a4, -1
get_epoch_table_x(int, int):
/proj_sw/user_dev/jnie/budabackend/src/firmware/riscv/wormhole/risc_chip_specific.cc:135
    epoch_x = 0;
    9788:	00000693          	li	a3, 0
/proj_sw/user_dev/jnie/budabackend/src/firmware/riscv/wormhole/risc_chip_specific.cc:134
  if (my_x <= 4) {
    978c:	00f55463          	bge	a0, a5, 9794 <__firmware_global_pointer+0x394>
/proj_sw/user_dev/jnie/budabackend/src/firmware/riscv/wormhole/risc_chip_specific.cc:137
    epoch_x = 5;
    9790:	00500693          	li	a3, 5
risc_get_epoch_q_dram_ptr(unsigned long, unsigned long):
/proj_sw/user_dev/jnie/budabackend/src/firmware/riscv/common/risc_epoch.h:118
    9794:	40d70733          	sub	a4, a4, a3
    9798:	c1dff06f          	j	93b4 <ApplicationHandler+0x374>
risc_is_l1_epoch_q_empty(unsigned long&):
/proj_sw/user_dev/jnie/budabackend/src/firmware/riscv/common/risc_epoch.h:76
  bool is_empty = my_q_rd_ptr == RISC_L1_EPOCH_Q_PTR->wr_ptr;
    979c:	00472703          	lw	a4, 4(a4)
risc_is_epoch_q_empty(unsigned long volatile*, unsigned long long&, unsigned long&, unsigned long&, unsigned long&):
/proj_sw/user_dev/jnie/budabackend/src/firmware/riscv/common/risc_epoch.h:143
    if (risc_get_l1_epoch_q_wrptr() == epoch_queue::POLLING_EPOCH_QUEUE_TAG ? epoch_empty_check_cnt == 0 : !risc_is_l1_epoch_q_empty(my_q_rd_ptr)) {
    97a0:	40e787b3          	sub	a5, a5, a4
    97a4:	00f037b3          	snez	a5, a5
    97a8:	d05ff06f          	j	94ac <__firmware_global_pointer+0xac>
risc_get_epoch_dram_ptr(unsigned long&, unsigned long&, unsigned long volatile*, unsigned long long&, unsigned long&, unsigned long&):
/proj_sw/user_dev/jnie/budabackend/src/firmware/riscv/common/risc_epoch.h:221
  return NOC_XY_ADDR(NOC_X(dram_coord_x), NOC_Y(dram_coord_y), dram_addr_offset);
    97ac:	00a61613          	slli	a2, a2, 0xa
    97b0:	00489893          	slli	a7, a7, 0x4
    97b4:	e25ff06f          	j	95d8 <__firmware_global_pointer+0x1d8>
RISC_POST_STATUS(unsigned long):
/proj_sw/user_dev/jnie/budabackend/src/firmware/riscv/targets/erisc/src/risc.h:26
    97b8:	00c12703          	lw	a4, 12(sp)
    97bc:	ffb207b7          	lui	a5, 0xffb20
    97c0:	10e7a623          	sw	a4, 268(a5) # ffb2010c <TENSIX_MAILBOX_BASE+0xffc6010c>
ApplicationHandler():
/proj_sw/user_dev/jnie/budabackend/src/firmware/riscv/targets/erisc/src/erisc.cc:346
      risc_context_switch();
    97c4:	16c000ef          	jal	ra, 9930 <risc_context_switch()>
    97c8:	cbdff06f          	j	9484 <__firmware_global_pointer+0x84>
/proj_sw/user_dev/jnie/budabackend/src/firmware/riscv/targets/erisc/src/erisc.cc:296
      } else if (epoch_queue::EpochCmdIOQueueUpdate == epoch_command) {
    97cc:	00300693          	li	a3, 3
    97d0:	02da1263          	bne	s4, a3, 97f4 <__firmware_global_pointer+0x3f4>
RISC_POST_STATUS(unsigned long):
/proj_sw/user_dev/jnie/budabackend/src/firmware/riscv/targets/erisc/src/risc.h:26
    97d4:	101d0713          	addi	a4, s10, 257
    97d8:	ffb207b7          	lui	a5, 0xffb20
    97dc:	10e7a623          	sw	a4, 268(a5) # ffb2010c <TENSIX_MAILBOX_BASE+0xffc6010c>
ApplicationHandler():
/proj_sw/user_dev/jnie/budabackend/src/firmware/riscv/targets/erisc/src/erisc.cc:298
          bool varinst_cmd = false;
    97e0:	020103a3          	sb	zero, 39(sp)
/proj_sw/user_dev/jnie/budabackend/src/firmware/riscv/targets/erisc/src/erisc.cc:303
          run_dram_queue_update(0, noc_read_scratch_buf, my_q_table_offset, my_q_rd_ptr, dram_next_epoch_ptr, loading_noc, varinst_cmd, loop_iteration); // Need to ensure we don't need ifdefs here for A0 vs B0 HW
    97e4:	02810593          	addi	a1, sp, 40
    97e8:	02710513          	addi	a0, sp, 39
    97ec:	104020ef          	jal	ra, b8f0 <run_dram_queue_update(void*, unsigned long volatile*, unsigned long long&, unsigned long&, unsigned long long&, unsigned char&, bool&, unsigned long&) [clone .constprop.0] [clone .isra.0]>
    97f0:	e4dff06f          	j	963c <__firmware_global_pointer+0x23c>
/proj_sw/user_dev/jnie/budabackend/src/firmware/riscv/targets/erisc/src/erisc.cc:300
      } else if (epoch_queue::EpochCmdVarinst == epoch_command) {
    97f4:	00400693          	li	a3, 4
    97f8:	00da1e63          	bne	s4, a3, 9814 <__firmware_global_pointer+0x414>
RISC_POST_STATUS(unsigned long):
/proj_sw/user_dev/jnie/budabackend/src/firmware/riscv/targets/erisc/src/risc.h:26
    97fc:	110007b7          	lui	a5, 0x11000
    9800:	ffb206b7          	lui	a3, 0xffb20
    9804:	10178793          	addi	a5, a5, 257 # 11000101 <noc_nonblocking_api.cc.88b5909b+0x10fdd37d>
    9808:	10f6a623          	sw	a5, 268(a3) # ffb2010c <TENSIX_MAILBOX_BASE+0xffc6010c>
ApplicationHandler():
/proj_sw/user_dev/jnie/budabackend/src/firmware/riscv/targets/erisc/src/erisc.cc:302
          bool varinst_cmd = true;
    980c:	02e103a3          	sb	a4, 39(sp)
    9810:	fd5ff06f          	j	97e4 <__firmware_global_pointer+0x3e4>
/proj_sw/user_dev/jnie/budabackend/src/firmware/riscv/targets/erisc/src/erisc.cc:304
        } else if (epoch_queue::EpochCmdLoopStart == epoch_command) {
    9814:	00500713          	li	a4, 5
    9818:	04ea1263          	bne	s4, a4, 985c <__firmware_global_pointer+0x45c>
/proj_sw/user_dev/jnie/budabackend/src/firmware/riscv/targets/erisc/src/erisc.cc:306
        uint32_t loop_start_rd_ptr = dram_io_incr_ptr(my_q_rd_ptr, 1, EPOCH_QUEUE_NUM_SLOTS);
    981c:	41c92683          	lw	a3, 1052(s2)
dram_io_incr_ptr(unsigned long, unsigned long, unsigned long):
/proj_sw/user_dev/jnie/budabackend/src/firmware/riscv/common/risc_common.h:55
  if (next_ptr >= double_buf_size_q_slots) {
    9820:	1ff00613          	li	a2, 511
/proj_sw/user_dev/jnie/budabackend/src/firmware/riscv/common/risc_common.h:53
  uint32_t next_ptr = curr_ptr + incr;
    9824:	00168713          	addi	a4, a3, 1
/proj_sw/user_dev/jnie/budabackend/src/firmware/riscv/common/risc_common.h:55
  if (next_ptr >= double_buf_size_q_slots) {
    9828:	00e67463          	bgeu	a2, a4, 9830 <__firmware_global_pointer+0x430>
/proj_sw/user_dev/jnie/budabackend/src/firmware/riscv/common/risc_common.h:56
    next_ptr -= double_buf_size_q_slots;
    982c:	e0168713          	addi	a4, a3, -511
LoopStack<4>::push(LoopInfo const&):
/proj_sw/user_dev/jnie/budabackend/src/firmware/riscv/common/risc_epoch.h:45
        ptr++;
    9830:	00178793          	addi	a5, a5, 1
/proj_sw/user_dev/jnie/budabackend/src/firmware/riscv/common/risc_epoch.h:46
        table[ptr] = info;
    9834:	00c00693          	li	a3, 12
/proj_sw/user_dev/jnie/budabackend/src/firmware/riscv/common/risc_epoch.h:45
        ptr++;
    9838:	04f12e23          	sw	a5, 92(sp)
/proj_sw/user_dev/jnie/budabackend/src/firmware/riscv/common/risc_epoch.h:46
        table[ptr] = info;
    983c:	02d787b3          	mul	a5, a5, a3
    9840:	06010693          	addi	a3, sp, 96
    9844:	00f687b3          	add	a5, a3, a5
ApplicationHandler():
/proj_sw/user_dev/jnie/budabackend/src/firmware/riscv/targets/erisc/src/erisc.cc:307
        loopstack.push({.last_iter = num_loops_cmd-1, .epoch_ptr = loop_start_rd_ptr});
    9848:	fff50513          	addi	a0, a0, -1
LoopStack<4>::push(LoopInfo const&):
/proj_sw/user_dev/jnie/budabackend/src/firmware/riscv/common/risc_epoch.h:46
    984c:	fc07a623          	sw	zero, -52(a5)
    9850:	fca7a823          	sw	a0, -48(a5)
    9854:	fce7aa23          	sw	a4, -44(a5)
    9858:	de5ff06f          	j	963c <__firmware_global_pointer+0x23c>
ApplicationHandler():
/proj_sw/user_dev/jnie/budabackend/src/firmware/riscv/targets/erisc/src/erisc.cc:308
      } else if (epoch_queue::EpochCmdLoopEnd == epoch_command) {
    985c:	00600713          	li	a4, 6
    9860:	dcea1ee3          	bne	s4, a4, 963c <__firmware_global_pointer+0x23c>
/proj_sw/user_dev/jnie/budabackend/src/firmware/riscv/common/risc_epoch.h:41
        if (ptr < 0) return nullptr;
    9864:	00000713          	li	a4, 0
LoopStack<4>::top():
/proj_sw/user_dev/jnie/budabackend/src/firmware/riscv/common/risc_epoch.h:41
    9868:	0007ca63          	bltz	a5, 987c <__firmware_global_pointer+0x47c>
/proj_sw/user_dev/jnie/budabackend/src/firmware/riscv/common/risc_epoch.h:42
        return &table[ptr];
    986c:	00c00713          	li	a4, 12
    9870:	02e78733          	mul	a4, a5, a4
    9874:	02c10693          	addi	a3, sp, 44
    9878:	00e68733          	add	a4, a3, a4
ApplicationHandler():
/proj_sw/user_dev/jnie/budabackend/src/firmware/riscv/targets/erisc/src/erisc.cc:311
          if (curr_loop->curr_iter < curr_loop->last_iter) {
    987c:	00072683          	lw	a3, 0(a4)
    9880:	00472603          	lw	a2, 4(a4)
    9884:	02c6f663          	bgeu	a3, a2, 98b0 <__firmware_global_pointer+0x4b0>
/proj_sw/user_dev/jnie/budabackend/src/firmware/riscv/targets/erisc/src/erisc.cc:313
              my_q_rd_ptr = curr_loop->epoch_ptr;
    9888:	00872783          	lw	a5, 8(a4)
/proj_sw/user_dev/jnie/budabackend/src/firmware/riscv/targets/erisc/src/erisc.cc:312
              curr_loop->curr_iter++;
    988c:	00168693          	addi	a3, a3, 1
    9890:	00d72023          	sw	a3, 0(a4)
/proj_sw/user_dev/jnie/budabackend/src/firmware/riscv/targets/erisc/src/erisc.cc:313
              my_q_rd_ptr = curr_loop->epoch_ptr;
    9894:	40f92e23          	sw	a5, 1052(s2)
/proj_sw/user_dev/jnie/budabackend/src/firmware/riscv/targets/erisc/src/erisc.cc:315
              while (!ncrisc_noc_nonposted_writes_flushed(loading_noc, NCRISC_WR_DEF_TRID));
    9898:	42a44503          	lbu	a0, 1066(s0)
    989c:	00000593          	li	a1, 0
    98a0:	ffbf6097          	auipc	ra, 0xffbf6
    98a4:	760080e7          	jalr	1888(ra) # ffc00000 <TENSIX_MAILBOX_BASE+0xffd40000>
    98a8:	fe0508e3          	beqz	a0, 9898 <__firmware_global_pointer+0x498>
    98ac:	bd9ff06f          	j	9484 <__firmware_global_pointer+0x84>
LoopStack<4>::pop():
/proj_sw/user_dev/jnie/budabackend/src/firmware/riscv/common/risc_epoch.h:50
        ptr--;
    98b0:	fff78793          	addi	a5, a5, -1
    98b4:	04f12e23          	sw	a5, 92(sp)
    98b8:	d85ff06f          	j	963c <__firmware_global_pointer+0x23c>

Disassembly of section code_l1:

000098bc <init_erisc_streams(void*, unsigned long)>:
RISC_POST_STATUS(unsigned long):
/proj_sw/user_dev/jnie/budabackend/src/firmware/riscv/targets/erisc/src/risc.h:26
    98bc:	ffb207b7          	lui	a5, 0xffb20
init_erisc_streams(void*, unsigned long):
/proj_sw/user_dev/jnie/budabackend/src/firmware/riscv/targets/erisc/src/erisc.cc:82
  num_active_streams = RISC_EPOCH_INFO_PTR->num_active_streams;
    98c0:	00020637          	lui	a2, 0x20
RISC_POST_STATUS(unsigned long):
/proj_sw/user_dev/jnie/budabackend/src/firmware/riscv/targets/erisc/src/risc.h:26
    98c4:	10a7a623          	sw	a0, 268(a5) # ffb2010c <TENSIX_MAILBOX_BASE+0xffc6010c>
init_erisc_streams(void*, unsigned long):
/proj_sw/user_dev/jnie/budabackend/src/firmware/riscv/targets/erisc/src/erisc.cc:82
    98c8:	08060613          	addi	a2, a2, 128 # 20080 <risc_chip_specific.cc.5b7d4a1c+0x10a4>
    98cc:	00862583          	lw	a1, 8(a2)
    98d0:	0000f7b7          	lui	a5, 0xf
    98d4:	4c078713          	addi	a4, a5, 1216 # f4c0 <active_stream_info>
/proj_sw/user_dev/jnie/budabackend/src/firmware/riscv/targets/erisc/src/erisc.cc:84
  volatile active_stream_info_t* curr_active_stream_info = active_stream_info;
    98d8:	4c078793          	addi	a5, a5, 1216
/proj_sw/user_dev/jnie/budabackend/src/firmware/riscv/targets/erisc/src/erisc.cc:82
  num_active_streams = RISC_EPOCH_INFO_PTR->num_active_streams;
    98dc:	18b72023          	sw	a1, 384(a4)
/proj_sw/user_dev/jnie/budabackend/src/firmware/riscv/targets/erisc/src/erisc.cc:85
  for (uint32_t i = 0;
    98e0:	00000713          	li	a4, 0
/proj_sw/user_dev/jnie/budabackend/src/firmware/riscv/targets/erisc/src/erisc.cc:86
       i < num_active_streams;
    98e4:	04e58463          	beq	a1, a4, 992c <init_erisc_streams(void*, unsigned long)+0x70>
/proj_sw/user_dev/jnie/budabackend/src/firmware/riscv/targets/erisc/src/erisc.cc:88
    epoch_stream_info_t tt_l1_ptr * l1_stream_info = RISC_EPOCH_INFO_PTR->active_streams[i];
    98e8:	04470693          	addi	a3, a4, 68
    98ec:	00269693          	slli	a3, a3, 0x2
    98f0:	00d606b3          	add	a3, a2, a3
    98f4:	0046a683          	lw	a3, 4(a3)
/proj_sw/user_dev/jnie/budabackend/src/firmware/riscv/targets/erisc/src/erisc.cc:90
    uint32_t start_phase_num_cfg_regs = l1_stream_info->start_phase_num_cfg_regs;
    98f8:	01e6c883          	lbu	a7, 30(a3)
/proj_sw/user_dev/jnie/budabackend/src/firmware/riscv/targets/erisc/src/erisc.cc:91
    uint32_t flags = l1_stream_info->flags;
    98fc:	03c6a803          	lw	a6, 60(a3)
/proj_sw/user_dev/jnie/budabackend/src/firmware/riscv/targets/erisc/src/erisc.cc:92
    uint32_t epoch_iters_remaining = l1_stream_info->epoch_iters_remaining;
    9900:	0306a503          	lw	a0, 48(a3)
/proj_sw/user_dev/jnie/budabackend/src/firmware/riscv/targets/erisc/src/erisc.cc:94
    curr_active_stream_info->stream_id = stream_id;
    9904:	0006c683          	lbu	a3, 0(a3)
    9908:	00d78023          	sb	a3, 0(a5)
/proj_sw/user_dev/jnie/budabackend/src/firmware/riscv/targets/erisc/src/erisc.cc:95
    curr_active_stream_info->dram_prefetch_stream_need_restart = 0;
    990c:	000781a3          	sb	zero, 3(a5)
/proj_sw/user_dev/jnie/budabackend/src/firmware/riscv/targets/erisc/src/erisc.cc:96
    curr_active_stream_info->start_phase_num_cfg_regs = start_phase_num_cfg_regs;
    9910:	01178123          	sb	a7, 2(a5)
/proj_sw/user_dev/jnie/budabackend/src/firmware/riscv/targets/erisc/src/erisc.cc:97
    curr_active_stream_info->flags = flags;
    9914:	01079323          	sh	a6, 6(a5)
/proj_sw/user_dev/jnie/budabackend/src/firmware/riscv/targets/erisc/src/erisc.cc:98
    curr_active_stream_info->epoch_iters_remaining = epoch_iters_remaining; 
    9918:	00a7a423          	sw	a0, 8(a5)
/proj_sw/user_dev/jnie/budabackend/src/firmware/riscv/targets/erisc/src/erisc.cc:99
    curr_active_stream_info->active_streams_idx = i;
    991c:	00e780a3          	sb	a4, 1(a5)
/proj_sw/user_dev/jnie/budabackend/src/firmware/riscv/targets/erisc/src/erisc.cc:85
  for (uint32_t i = 0;
    9920:	00170713          	addi	a4, a4, 1
    9924:	00c78793          	addi	a5, a5, 12
    9928:	fbdff06f          	j	98e4 <init_erisc_streams(void*, unsigned long)+0x28>
/proj_sw/user_dev/jnie/budabackend/src/firmware/riscv/targets/erisc/src/erisc.cc:105
}
    992c:	00008067          	ret

00009930 <risc_context_switch()>:
risc_context_switch():
/proj_sw/user_dev/jnie/budabackend/src/firmware/riscv/targets/erisc/src/erisc.cc:137
{
    9930:	ffb20637          	lui	a2, 0xffb20
ncrisc_noc_all_flushed(unsigned long):
/proj_sw/user_dev/jnie/budabackend/src/firmware/riscv/wormhole/noc_nonblocking_api.h:315
inline void ncrisc_noc_counters_init() {
}

inline bool ncrisc_noc_all_flushed(uint32_t noc) {
  bool all_flushed = true;
  for (uint32_t id = 0; id <= NOC_MAX_TRANSACTION_ID; id++) {
    9934:	28060593          	addi	a1, a2, 640 # ffb20280 <TENSIX_MAILBOX_BASE+0xffc60280>
risc_context_switch():
/proj_sw/user_dev/jnie/budabackend/src/firmware/riscv/targets/erisc/src/erisc.cc:137
    9938:	24060713          	addi	a4, a2, 576
ncrisc_noc_all_flushed(unsigned long):
/proj_sw/user_dev/jnie/budabackend/src/firmware/riscv/wormhole/noc_nonblocking_api.h:314
  bool all_flushed = true;
    993c:	00100793          	li	a5, 1
NOC_STATUS_READ_REG(unsigned long, unsigned long):
/proj_sw/user_dev/jnie/budabackend/src/firmware/riscv/wormhole/noc_nonblocking_api.h:52
  return *ptr;
    9940:	00072683          	lw	a3, 0(a4)
ncrisc_noc_all_flushed(unsigned long):
/proj_sw/user_dev/jnie/budabackend/src/firmware/riscv/wormhole/noc_nonblocking_api.h:315
  for (uint32_t id = 0; id <= NOC_MAX_TRANSACTION_ID; id++) {
    9944:	00470713          	addi	a4, a4, 4
/proj_sw/user_dev/jnie/budabackend/src/firmware/riscv/wormhole/noc_nonblocking_api.h:316
    all_flushed &= NOC_STATUS_READ_REG(noc, NIU_MST_REQS_OUTSTANDING_ID(id)) == 0;
    9948:	0016b693          	seqz	a3, a3
    994c:	00d7f7b3          	and	a5, a5, a3
/proj_sw/user_dev/jnie/budabackend/src/firmware/riscv/wormhole/noc_nonblocking_api.h:315
  for (uint32_t id = 0; id <= NOC_MAX_TRANSACTION_ID; id++) {
    9950:	feb718e3          	bne	a4, a1, 9940 <risc_context_switch()+0x10>
ncrisc_noc_full_sync():
/proj_sw/user_dev/jnie/budabackend/src/firmware/riscv/wormhole/noc_nonblocking_api.h:323
  return all_flushed;
}

inline void ncrisc_noc_full_sync() {
  for (uint32_t n = 0; n < NUM_NOCS; n++) {
    while (!ncrisc_noc_all_flushed(n));
    9954:	fe0782e3          	beqz	a5, 9938 <risc_context_switch()+0x8>
ncrisc_noc_all_flushed(unsigned long):
/proj_sw/user_dev/jnie/budabackend/src/firmware/riscv/wormhole/noc_nonblocking_api.h:314
  bool all_flushed = true;
    9958:	ffb305b7          	lui	a1, 0xffb30
/proj_sw/user_dev/jnie/budabackend/src/firmware/riscv/wormhole/noc_nonblocking_api.h:315
  for (uint32_t id = 0; id <= NOC_MAX_TRANSACTION_ID; id++) {
    995c:	28058513          	addi	a0, a1, 640 # ffb30280 <TENSIX_MAILBOX_BASE+0xffc70280>
/proj_sw/user_dev/jnie/budabackend/src/firmware/riscv/wormhole/noc_nonblocking_api.h:314
  bool all_flushed = true;
    9960:	00078693          	mv	a3, a5
    9964:	24058713          	addi	a4, a1, 576
NOC_STATUS_READ_REG(unsigned long, unsigned long):
/proj_sw/user_dev/jnie/budabackend/src/firmware/riscv/wormhole/noc_nonblocking_api.h:52
  return *ptr;
    9968:	00072603          	lw	a2, 0(a4)
ncrisc_noc_all_flushed(unsigned long):
/proj_sw/user_dev/jnie/budabackend/src/firmware/riscv/wormhole/noc_nonblocking_api.h:315
  for (uint32_t id = 0; id <= NOC_MAX_TRANSACTION_ID; id++) {
    996c:	00470713          	addi	a4, a4, 4
/proj_sw/user_dev/jnie/budabackend/src/firmware/riscv/wormhole/noc_nonblocking_api.h:316
    all_flushed &= NOC_STATUS_READ_REG(noc, NIU_MST_REQS_OUTSTANDING_ID(id)) == 0;
    9970:	00163613          	seqz	a2, a2
    9974:	00c6f6b3          	and	a3, a3, a2
/proj_sw/user_dev/jnie/budabackend/src/firmware/riscv/wormhole/noc_nonblocking_api.h:315
  for (uint32_t id = 0; id <= NOC_MAX_TRANSACTION_ID; id++) {
    9978:	fea718e3          	bne	a4, a0, 9968 <risc_context_switch()+0x38>
ncrisc_noc_full_sync():
/proj_sw/user_dev/jnie/budabackend/src/firmware/riscv/wormhole/noc_nonblocking_api.h:323
    while (!ncrisc_noc_all_flushed(n));
    997c:	fe0682e3          	beqz	a3, 9960 <risc_context_switch()+0x30>
risc_context_switch():
/proj_sw/user_dev/jnie/budabackend/src/firmware/riscv/targets/erisc/src/erisc.cc:139
    rtos_context_switch_ptr();
    9980:	0000f7b7          	lui	a5, 0xf
    9984:	4347a783          	lw	a5, 1076(a5) # f434 <rtos_context_switch_ptr>
    9988:	00078067          	jr	a5

0000998c <dram_input_stream_issue_scatter_read(unsigned long, unsigned long, unsigned long, unsigned long, unsigned long, unsigned long, tt_uint64_t volatile* rvtt_l1_ptr, unsigned long&, unsigned long&, unsigned long&, unsigned long)>:
dram_input_stream_issue_scatter_read(unsigned long, unsigned long, unsigned long, unsigned long, unsigned long, unsigned long, tt_uint64_t volatile* rvtt_l1_ptr, unsigned long&, unsigned long&, unsigned long&, unsigned long):
/proj_sw/user_dev/jnie/budabackend/src/firmware/riscv/common/dram_stream_intf.cc:323
#else
void __attribute__ ((noinline)) dram_input_stream_issue_scatter_read(uint32_t input_noc, uint32_t dram_data_buf_fetch_rdptr_byte, uint32_t data_rec_chunk_size_tiles, uint32_t dram_io_scatter_chunk_size_tiles,
#endif
                                                                      uint32_t dram_io_scatter_chunk_size_bytes, uint32_t stream_dest_addr, volatile tt_uint64_t tt_l1_ptr * scatter_offsets, uint32_t& scatter_idx,
                                                                      uint32_t& scatter_loop_index, uint32_t& scatter_loop_inc, uint32_t transaction_id
                                                                      ) {
    998c:	fd010113          	addi	sp, sp, -48
    9990:	03812383          	lw	t2, 56(sp)
NOC_STATUS_READ_REG(unsigned long, unsigned long):
/proj_sw/user_dev/jnie/budabackend/src/firmware/riscv/wormhole/noc_nonblocking_api.h:50
  uint32_t offset = (noc << NOC_INSTANCE_OFFSET_BIT) + NOC_STATUS(reg_id);
    9994:	3fec8e37          	lui	t3, 0x3fec8
    9998:	090e0e13          	addi	t3, t3, 144 # 3fec8090 <noc_nonblocking_api.cc.88b5909b+0x3fea530c>
    999c:	01c38e33          	add	t3, t2, t3
NOC_CMD_BUF_READ_REG(unsigned long, unsigned long, unsigned long):
/proj_sw/user_dev/jnie/budabackend/src/firmware/riscv/wormhole/noc_nonblocking_api.h:43
  uint32_t offset = (buf << NOC_CMD_BUF_OFFSET_BIT) + (noc << NOC_INSTANCE_OFFSET_BIT) + addr;
    99a0:	00001337          	lui	t1, 0x1
    99a4:	ffb21fb7          	lui	t6, 0xffb21
    99a8:	01051e93          	slli	t4, a0, 0x10
    99ac:	c0030313          	addi	t1, t1, -1024 # c00 <__firmware_stack_size+0x800>
    99b0:	c28f8f93          	addi	t6, t6, -984 # ffb20c28 <TENSIX_MAILBOX_BASE+0xffc60c28>
NOC_STATUS_READ_REG(unsigned long, unsigned long):
/proj_sw/user_dev/jnie/budabackend/src/firmware/riscv/wormhole/noc_nonblocking_api.h:50
  uint32_t offset = (noc << NOC_INSTANCE_OFFSET_BIT) + NOC_STATUS(reg_id);
    99b4:	002e1e13          	slli	t3, t3, 0x2
ncrisc_noc_fast_read_scatter(unsigned long, unsigned long, unsigned long long, unsigned long, unsigned long, unsigned long):
/proj_sw/user_dev/jnie/budabackend/src/firmware/riscv/wormhole/noc_nonblocking_api.h:112
    ptr[NOC_RET_ADDR_MID >> 2] = noc_xy_local_addr[noc];
    99b8:	0000f2b7          	lui	t0, 0xf
NOC_CMD_BUF_READ_REG(unsigned long, unsigned long, unsigned long):
/proj_sw/user_dev/jnie/budabackend/src/firmware/riscv/wormhole/noc_nonblocking_api.h:43
  uint32_t offset = (buf << NOC_CMD_BUF_OFFSET_BIT) + (noc << NOC_INSTANCE_OFFSET_BIT) + addr;
    99bc:	006e8333          	add	t1, t4, t1
dram_input_stream_issue_scatter_read(unsigned long, unsigned long, unsigned long, unsigned long, unsigned long, unsigned long, tt_uint64_t volatile* rvtt_l1_ptr, unsigned long&, unsigned long&, unsigned long&, unsigned long):
/proj_sw/user_dev/jnie/budabackend/src/firmware/riscv/common/dram_stream_intf.cc:323
    99c0:	02812623          	sw	s0, 44(sp)
    99c4:	03212223          	sw	s2, 36(sp)
    99c8:	03312023          	sw	s3, 32(sp)
    99cc:	01412e23          	sw	s4, 28(sp)
    99d0:	01512c23          	sw	s5, 24(sp)
NOC_CMD_BUF_READ_REG(unsigned long, unsigned long, unsigned long):
/proj_sw/user_dev/jnie/budabackend/src/firmware/riscv/wormhole/noc_nonblocking_api.h:43
    99d4:	01fe8fb3          	add	t6, t4, t6
NOC_STATUS_READ_REG(unsigned long, unsigned long):
/proj_sw/user_dev/jnie/budabackend/src/firmware/riscv/wormhole/noc_nonblocking_api.h:50
  uint32_t offset = (noc << NOC_INSTANCE_OFFSET_BIT) + NOC_STATUS(reg_id);
    99d8:	01de0e33          	add	t3, t3, t4
dram_input_stream_issue_scatter_read(unsigned long, unsigned long, unsigned long, unsigned long, unsigned long, unsigned long, tt_uint64_t volatile* rvtt_l1_ptr, unsigned long&, unsigned long&, unsigned long&, unsigned long):
/proj_sw/user_dev/jnie/budabackend/src/firmware/riscv/common/dram_stream_intf.cc:329
  uint32_t addr_with_offset = dram_data_buf_fetch_rdptr_byte + DRAM_BUF_DATA_OFFSET;
  for (uint32_t scatter_tile = 0; scatter_tile < data_rec_chunk_size_tiles; scatter_tile += dram_io_scatter_chunk_size_tiles) {
    // Note: keep () around the 32 bit addition to add before promotion to 64 bit
    uint64_t dram_src_addr_w_offset = tt_l1_load(&scatter_offsets[scatter_idx]);
    bool is_padding_set = ((dram_src_addr_w_offset >> 32) & IS_DRAM_PADDING_SET) != 0;
    dram_src_addr_w_offset = dram_src_addr_w_offset & ~(((uint64_t)IS_DRAM_PADDING_SET) << 32);
    99dc:	c00009b7          	lui	s3, 0xc0000
ncrisc_noc_fast_read_scatter(unsigned long, unsigned long, unsigned long long, unsigned long, unsigned long, unsigned long):
/proj_sw/user_dev/jnie/budabackend/src/firmware/riscv/wormhole/noc_nonblocking_api.h:111
    ptr[NOC_RET_ADDR_LO >> 2] = dest_addr;
    99e0:	ffb20eb7          	lui	t4, 0xffb20
/proj_sw/user_dev/jnie/budabackend/src/firmware/riscv/wormhole/noc_nonblocking_api.h:112
    ptr[NOC_RET_ADDR_MID >> 2] = noc_xy_local_addr[noc];
    99e4:	00251513          	slli	a0, a0, 0x2
    99e8:	40428293          	addi	t0, t0, 1028 # f404 <noc_xy_local_addr>
/proj_sw/user_dev/jnie/budabackend/src/firmware/riscv/wormhole/noc_nonblocking_api.h:113
    ptr[NOC_CTRL >> 2] = noc_rd_cmd_field;
    99ec:	00002a37          	lui	s4, 0x2
decompress_scatter_offsets(tt_uint64_t volatile* rvtt_l1_ptr, unsigned long&, unsigned long&, unsigned long&, dram_scatter_loop_t volatile* rvtt_l1_ptr):
/proj_sw/user_dev/jnie/budabackend/src/firmware/riscv/common/dram_stream_intf.cc:282
    num_iter = num_iter & ~DRAM_IO_IS_SCATTER_LOOP;
    99f0:	80000ab7          	lui	s5, 0x80000
dram_input_stream_issue_scatter_read(unsigned long, unsigned long, unsigned long, unsigned long, unsigned long, unsigned long, tt_uint64_t volatile* rvtt_l1_ptr, unsigned long&, unsigned long&, unsigned long&, unsigned long):
/proj_sw/user_dev/jnie/budabackend/src/firmware/riscv/common/dram_stream_intf.cc:323
                                                                      ) {
    99f4:	03012903          	lw	s2, 48(sp)
    99f8:	03412403          	lw	s0, 52(sp)
    99fc:	02912423          	sw	s1, 40(sp)
    9a00:	01712823          	sw	s7, 16(sp)
    9a04:	01812623          	sw	s8, 12(sp)
    9a08:	01912423          	sw	s9, 8(sp)
    9a0c:	01612a23          	sw	s6, 20(sp)
    9a10:	01a12223          	sw	s10, 4(sp)
    9a14:	01b12023          	sw	s11, 0(sp)
/proj_sw/user_dev/jnie/budabackend/src/firmware/riscv/common/dram_stream_intf.cc:324
  uint32_t addr_with_offset = dram_data_buf_fetch_rdptr_byte + DRAM_BUF_DATA_OFFSET;
    9a18:	02058593          	addi	a1, a1, 32
ncrisc_noc_fast_read_scatter(unsigned long, unsigned long, unsigned long long, unsigned long, unsigned long, unsigned long):
/proj_sw/user_dev/jnie/budabackend/src/firmware/riscv/wormhole/noc_nonblocking_api.h:116
    ptr[NOC_PACKET_TAG >> 2] = NOC_PACKET_TAG_TRANSACTION_ID(transaction_id);
    9a1c:	00a39393          	slli	t2, t2, 0xa
dram_input_stream_issue_scatter_read(unsigned long, unsigned long, unsigned long, unsigned long, unsigned long, unsigned long, tt_uint64_t volatile* rvtt_l1_ptr, unsigned long&, unsigned long&, unsigned long&, unsigned long):
/proj_sw/user_dev/jnie/budabackend/src/firmware/riscv/common/dram_stream_intf.cc:325
  for (uint32_t scatter_tile = 0; scatter_tile < data_rec_chunk_size_tiles; scatter_tile += dram_io_scatter_chunk_size_tiles) {
    9a20:	00000493          	li	s1, 0
/proj_sw/user_dev/jnie/budabackend/src/firmware/riscv/common/dram_stream_intf.cc:329
    dram_src_addr_w_offset = dram_src_addr_w_offset & ~(((uint64_t)IS_DRAM_PADDING_SET) << 32);
    9a24:	fff98993          	addi	s3, s3, -1 # bfffffff <TENSIX_MAILBOX_BASE+0xc013ffff>
/proj_sw/user_dev/jnie/budabackend/src/firmware/riscv/common/dram_stream_intf.cc:328
    bool is_padding_set = ((dram_src_addr_w_offset >> 32) & IS_DRAM_PADDING_SET) != 0;
    9a28:	40000bb7          	lui	s7, 0x40000
ncrisc_noc_fast_read_scatter(unsigned long, unsigned long, unsigned long long, unsigned long, unsigned long, unsigned long):
/proj_sw/user_dev/jnie/budabackend/src/firmware/riscv/wormhole/noc_nonblocking_api.h:103
  while (NOC_STATUS_READ_REG(noc, NIU_MST_REQS_OUTSTANDING_ID(transaction_id)) > ((NOC_MAX_TRANSACTION_ID_COUNT+1)/2));
    9a2c:	08000c13          	li	s8, 128
/proj_sw/user_dev/jnie/budabackend/src/firmware/riscv/wormhole/noc_nonblocking_api.h:111
    ptr[NOC_RET_ADDR_LO >> 2] = dest_addr;
    9a30:	01d30333          	add	t1, t1, t4
/proj_sw/user_dev/jnie/budabackend/src/firmware/riscv/wormhole/noc_nonblocking_api.h:112
    ptr[NOC_RET_ADDR_MID >> 2] = noc_xy_local_addr[noc];
    9a34:	00a282b3          	add	t0, t0, a0
/proj_sw/user_dev/jnie/budabackend/src/firmware/riscv/wormhole/noc_nonblocking_api.h:113
    ptr[NOC_CTRL >> 2] = noc_rd_cmd_field;
    9a38:	090a0a13          	addi	s4, s4, 144 # 2090 <__firmware_start+0x90>
/proj_sw/user_dev/jnie/budabackend/src/firmware/riscv/wormhole/noc_nonblocking_api.h:118
    ptr[NOC_CMD_CTRL >> 2] = NOC_CTRL_SEND_REQ;
    9a3c:	00100c93          	li	s9, 1
decompress_scatter_offsets(tt_uint64_t volatile* rvtt_l1_ptr, unsigned long&, unsigned long&, unsigned long&, dram_scatter_loop_t volatile* rvtt_l1_ptr):
/proj_sw/user_dev/jnie/budabackend/src/firmware/riscv/common/dram_stream_intf.cc:282
    num_iter = num_iter & ~DRAM_IO_IS_SCATTER_LOOP;
    9a40:	fffaca93          	not	s5, s5
dram_input_stream_issue_scatter_read(unsigned long, unsigned long, unsigned long, unsigned long, unsigned long, unsigned long, tt_uint64_t volatile* rvtt_l1_ptr, unsigned long&, unsigned long&, unsigned long&, unsigned long):
/proj_sw/user_dev/jnie/budabackend/src/firmware/riscv/common/dram_stream_intf.cc:325 (discriminator 1)
  for (uint32_t scatter_tile = 0; scatter_tile < data_rec_chunk_size_tiles; scatter_tile += dram_io_scatter_chunk_size_tiles) {
    9a44:	0ec4f063          	bgeu	s1, a2, 9b24 <dram_input_stream_issue_scatter_read(unsigned long, unsigned long, unsigned long, unsigned long, unsigned long, unsigned long, tt_uint64_t volatile* rvtt_l1_ptr, unsigned long&, unsigned long&, unsigned long&, unsigned long)+0x198>
/proj_sw/user_dev/jnie/budabackend/src/firmware/riscv/common/dram_stream_intf.cc:327
    uint64_t dram_src_addr_w_offset = tt_l1_load(&scatter_offsets[scatter_idx]);
    9a48:	0008ad03          	lw	s10, 0(a7)
    9a4c:	003d1513          	slli	a0, s10, 0x3
    9a50:	00a80f33          	add	t5, a6, a0
tt_l1_load(tt_uint64_t volatile* rvtt_l1_ptr):
/proj_sw/user_dev/jnie/budabackend/src/firmware/riscv/common/risc_attribs.h:30

inline __attribute__((always_inline)) uint64_t tt_l1_load(volatile tt_uint64_t * tt_l1_ptr p)
{
    tt_uint64_t v;

    v.hi = p->hi;
    9a54:	000f2e83          	lw	t4, 0(t5)
/proj_sw/user_dev/jnie/budabackend/src/firmware/riscv/common/risc_attribs.h:31
    v.lo = p->lo;
    9a58:	004f2f03          	lw	t5, 4(t5)
dram_input_stream_issue_scatter_read(unsigned long, unsigned long, unsigned long, unsigned long, unsigned long, unsigned long, tt_uint64_t volatile* rvtt_l1_ptr, unsigned long&, unsigned long&, unsigned long&, unsigned long):
/proj_sw/user_dev/jnie/budabackend/src/firmware/riscv/common/dram_stream_intf.cc:329
    dram_src_addr_w_offset = dram_src_addr_w_offset & ~(((uint64_t)IS_DRAM_PADDING_SET) << 32);
    9a5c:	013f7b33          	and	s6, t5, s3
/proj_sw/user_dev/jnie/budabackend/src/firmware/riscv/common/dram_stream_intf.cc:328
    bool is_padding_set = ((dram_src_addr_w_offset >> 32) & IS_DRAM_PADDING_SET) != 0;
    9a60:	01ebff33          	and	t5, s7, t5
/proj_sw/user_dev/jnie/budabackend/src/firmware/riscv/common/dram_stream_intf.cc:330
    if (!is_padding_set)
    9a64:	000f1e63          	bnez	t5, 9a80 <dram_input_stream_issue_scatter_read(unsigned long, unsigned long, unsigned long, unsigned long, unsigned long, unsigned long, tt_uint64_t volatile* rvtt_l1_ptr, unsigned long&, unsigned long&, unsigned long&, unsigned long)+0xf4>
/proj_sw/user_dev/jnie/budabackend/src/firmware/riscv/common/dram_stream_intf.cc:331
      dram_src_addr_w_offset += (addr_with_offset + scatter_loop_inc);
    9a68:	00042f03          	lw	t5, 0(s0)
    9a6c:	01e58f33          	add	t5, a1, t5
    9a70:	01ee8f33          	add	t5, t4, t5
    9a74:	01df3db3          	sltu	s11, t5, t4
    9a78:	016d8b33          	add	s6, s11, s6
    9a7c:	000f0e93          	mv	t4, t5
/proj_sw/user_dev/jnie/budabackend/src/firmware/riscv/common/dram_stream_intf.cc:332 (discriminator 2)
    scatter_idx++;
    9a80:	001d0d13          	addi	s10, s10, 1
/proj_sw/user_dev/jnie/budabackend/src/firmware/riscv/common/dram_stream_intf.cc:333 (discriminator 2)
    volatile dram_scatter_loop_t tt_l1_ptr * dram_scatter_loop = (volatile dram_scatter_loop_t tt_l1_ptr *)&scatter_offsets[scatter_idx];
    9a84:	00850513          	addi	a0, a0, 8
/proj_sw/user_dev/jnie/budabackend/src/firmware/riscv/common/dram_stream_intf.cc:332 (discriminator 2)
    scatter_idx++;
    9a88:	01a8a023          	sw	s10, 0(a7)
/proj_sw/user_dev/jnie/budabackend/src/firmware/riscv/common/dram_stream_intf.cc:333 (discriminator 2)
    volatile dram_scatter_loop_t tt_l1_ptr * dram_scatter_loop = (volatile dram_scatter_loop_t tt_l1_ptr *)&scatter_offsets[scatter_idx];
    9a8c:	00a80533          	add	a0, a6, a0
NOC_CMD_BUF_READ_REG(unsigned long, unsigned long, unsigned long):
/proj_sw/user_dev/jnie/budabackend/src/firmware/riscv/wormhole/noc_nonblocking_api.h:45
  return *ptr;
    9a90:	000faf03          	lw	t5, 0(t6)
ncrisc_noc_fast_read_any_len_scatter(unsigned long, unsigned long, unsigned long long, unsigned long, unsigned long, unsigned long):
/proj_sw/user_dev/jnie/budabackend/src/firmware/riscv/wormhole/noc_nonblocking_api.h:334
  while (!ncrisc_noc_fast_read_ok(noc, cmd_buf));
  ncrisc_noc_fast_read(noc, cmd_buf, src_addr, dest_addr, len_bytes, transaction_id); 
}

inline __attribute__((always_inline)) void ncrisc_noc_fast_read_any_len_scatter(uint32_t noc, uint32_t cmd_buf, uint64_t src_addr, uint32_t dest_addr, uint32_t len_bytes, uint32_t transaction_id) {
  while (NOC_CMD_BUF_READ_REG(noc, cmd_buf, NOC_CMD_CTRL) != NOC_CTRL_STATUS_READY);   //while (!ncrisc_noc_fast_read_ok(noc, cmd_buf));
    9a94:	fe0f1ee3          	bnez	t5, 9a90 <dram_input_stream_issue_scatter_read(unsigned long, unsigned long, unsigned long, unsigned long, unsigned long, unsigned long, tt_uint64_t volatile* rvtt_l1_ptr, unsigned long&, unsigned long&, unsigned long&, unsigned long)+0x104>
NOC_STATUS_READ_REG(unsigned long, unsigned long):
/proj_sw/user_dev/jnie/budabackend/src/firmware/riscv/wormhole/noc_nonblocking_api.h:52
  return *ptr;
    9a98:	000e2f03          	lw	t5, 0(t3)
ncrisc_noc_fast_read_scatter(unsigned long, unsigned long, unsigned long long, unsigned long, unsigned long, unsigned long):
/proj_sw/user_dev/jnie/budabackend/src/firmware/riscv/wormhole/noc_nonblocking_api.h:103
  while (NOC_STATUS_READ_REG(noc, NIU_MST_REQS_OUTSTANDING_ID(transaction_id)) > ((NOC_MAX_TRANSACTION_ID_COUNT+1)/2));
    9a9c:	ffec6ee3          	bltu	s8, t5, 9a98 <dram_input_stream_issue_scatter_read(unsigned long, unsigned long, unsigned long, unsigned long, unsigned long, unsigned long, tt_uint64_t volatile* rvtt_l1_ptr, unsigned long&, unsigned long&, unsigned long&, unsigned long)+0x10c>
/proj_sw/user_dev/jnie/budabackend/src/firmware/riscv/wormhole/noc_nonblocking_api.h:105
  if (len_bytes > 0) {
    9aa0:	02070463          	beqz	a4, 9ac8 <dram_input_stream_issue_scatter_read(unsigned long, unsigned long, unsigned long, unsigned long, unsigned long, unsigned long, tt_uint64_t volatile* rvtt_l1_ptr, unsigned long&, unsigned long&, unsigned long&, unsigned long)+0x13c>
/proj_sw/user_dev/jnie/budabackend/src/firmware/riscv/wormhole/noc_nonblocking_api.h:112
    ptr[NOC_RET_ADDR_MID >> 2] = noc_xy_local_addr[noc];
    9aa4:	0002af03          	lw	t5, 0(t0)
/proj_sw/user_dev/jnie/budabackend/src/firmware/riscv/wormhole/noc_nonblocking_api.h:111
    ptr[NOC_RET_ADDR_LO >> 2] = dest_addr;
    9aa8:	00f32623          	sw	a5, 12(t1)
/proj_sw/user_dev/jnie/budabackend/src/firmware/riscv/wormhole/noc_nonblocking_api.h:112
    ptr[NOC_RET_ADDR_MID >> 2] = noc_xy_local_addr[noc];
    9aac:	01e32823          	sw	t5, 16(t1)
/proj_sw/user_dev/jnie/budabackend/src/firmware/riscv/wormhole/noc_nonblocking_api.h:113
    ptr[NOC_CTRL >> 2] = noc_rd_cmd_field;
    9ab0:	01432e23          	sw	s4, 28(t1)
/proj_sw/user_dev/jnie/budabackend/src/firmware/riscv/wormhole/noc_nonblocking_api.h:114
    ptr[NOC_TARG_ADDR_LO >> 2] = (uint32_t)src_addr;
    9ab4:	01d32023          	sw	t4, 0(t1)
/proj_sw/user_dev/jnie/budabackend/src/firmware/riscv/wormhole/noc_nonblocking_api.h:115
    ptr[NOC_TARG_ADDR_MID >> 2] = src_addr >> 32;
    9ab8:	01632223          	sw	s6, 4(t1)
/proj_sw/user_dev/jnie/budabackend/src/firmware/riscv/wormhole/noc_nonblocking_api.h:116
    ptr[NOC_PACKET_TAG >> 2] = NOC_PACKET_TAG_TRANSACTION_ID(transaction_id);
    9abc:	00732c23          	sw	t2, 24(t1)
/proj_sw/user_dev/jnie/budabackend/src/firmware/riscv/wormhole/noc_nonblocking_api.h:117
    ptr[NOC_AT_LEN_BE >> 2] = len_bytes;
    9ac0:	02e32023          	sw	a4, 32(t1)
/proj_sw/user_dev/jnie/budabackend/src/firmware/riscv/wormhole/noc_nonblocking_api.h:118
    ptr[NOC_CMD_CTRL >> 2] = NOC_CTRL_SEND_REQ;
    9ac4:	03932423          	sw	s9, 40(t1)
decompress_scatter_offsets(tt_uint64_t volatile* rvtt_l1_ptr, unsigned long&, unsigned long&, unsigned long&, dram_scatter_loop_t volatile* rvtt_l1_ptr):
/proj_sw/user_dev/jnie/budabackend/src/firmware/riscv/common/dram_stream_intf.cc:279
  uint32_t num_iter = dram_scatter_loop->num_iter;
    9ac8:	00452f03          	lw	t5, 4(a0)
dram_input_stream_issue_scatter_read(unsigned long, unsigned long, unsigned long, unsigned long, unsigned long, unsigned long, tt_uint64_t volatile* rvtt_l1_ptr, unsigned long&, unsigned long&, unsigned long&, unsigned long):
/proj_sw/user_dev/jnie/budabackend/src/firmware/riscv/common/dram_stream_intf.cc:336
    ncrisc_noc_fast_read_any_len_scatter(input_noc, NCRISC_SMALL_TXN_CMD_BUF, dram_src_addr_w_offset, stream_dest_addr, dram_io_scatter_chunk_size_bytes, transaction_id);

    stream_dest_addr += dram_io_scatter_chunk_size_bytes;
    9acc:	00e787b3          	add	a5, a5, a4
decompress_scatter_offsets(tt_uint64_t volatile* rvtt_l1_ptr, unsigned long&, unsigned long&, unsigned long&, dram_scatter_loop_t volatile* rvtt_l1_ptr):
/proj_sw/user_dev/jnie/budabackend/src/firmware/riscv/common/dram_stream_intf.cc:281
  if (magic_number) {
    9ad0:	020f5c63          	bgez	t5, 9b08 <dram_input_stream_issue_scatter_read(unsigned long, unsigned long, unsigned long, unsigned long, unsigned long, unsigned long, tt_uint64_t volatile* rvtt_l1_ptr, unsigned long&, unsigned long&, unsigned long&, unsigned long)+0x17c>
/proj_sw/user_dev/jnie/budabackend/src/firmware/riscv/common/dram_stream_intf.cc:283
    if (scatter_loop_index < num_iter) {
    9ad4:	00092e83          	lw	t4, 0(s2)
/proj_sw/user_dev/jnie/budabackend/src/firmware/riscv/common/dram_stream_intf.cc:282
    num_iter = num_iter & ~DRAM_IO_IS_SCATTER_LOOP;
    9ad8:	015f7f33          	and	t5, t5, s5
/proj_sw/user_dev/jnie/budabackend/src/firmware/riscv/common/dram_stream_intf.cc:283
    if (scatter_loop_index < num_iter) {
    9adc:	03eefa63          	bgeu	t4, t5, 9b10 <dram_input_stream_issue_scatter_read(unsigned long, unsigned long, unsigned long, unsigned long, unsigned long, unsigned long, tt_uint64_t volatile* rvtt_l1_ptr, unsigned long&, unsigned long&, unsigned long&, unsigned long)+0x184>
/proj_sw/user_dev/jnie/budabackend/src/firmware/riscv/common/dram_stream_intf.cc:284
      uint32_t inc = dram_scatter_loop->inc;
    9ae0:	00852b03          	lw	s6, 8(a0)
/proj_sw/user_dev/jnie/budabackend/src/firmware/riscv/common/dram_stream_intf.cc:285
      uint32_t num_index_back = dram_scatter_loop->num_index_back;
    9ae4:	00052f03          	lw	t5, 0(a0)
/proj_sw/user_dev/jnie/budabackend/src/firmware/riscv/common/dram_stream_intf.cc:286
      scatter_loop_index++;
    9ae8:	001e8e93          	addi	t4, t4, 1 # ffb20001 <TENSIX_MAILBOX_BASE+0xffc60001>
    9aec:	01d92023          	sw	t4, 0(s2)
/proj_sw/user_dev/jnie/budabackend/src/firmware/riscv/common/dram_stream_intf.cc:287
      scatter_loop_inc += inc;
    9af0:	00042e83          	lw	t4, 0(s0)
    9af4:	016e8eb3          	add	t4, t4, s6
    9af8:	01d42023          	sw	t4, 0(s0)
/proj_sw/user_dev/jnie/budabackend/src/firmware/riscv/common/dram_stream_intf.cc:288
      scatter_idx -= num_index_back;
    9afc:	0008a503          	lw	a0, 0(a7)
    9b00:	41e50533          	sub	a0, a0, t5
/proj_sw/user_dev/jnie/budabackend/src/firmware/riscv/common/dram_stream_intf.cc:292
      scatter_idx += DRAM_IO_IS_SCATTER_LOOP_SIZE;
    9b04:	00a8a023          	sw	a0, 0(a7)
dram_input_stream_issue_scatter_read(unsigned long, unsigned long, unsigned long, unsigned long, unsigned long, unsigned long, tt_uint64_t volatile* rvtt_l1_ptr, unsigned long&, unsigned long&, unsigned long&, unsigned long):
/proj_sw/user_dev/jnie/budabackend/src/firmware/riscv/common/dram_stream_intf.cc:325
  for (uint32_t scatter_tile = 0; scatter_tile < data_rec_chunk_size_tiles; scatter_tile += dram_io_scatter_chunk_size_tiles) {
    9b08:	00d484b3          	add	s1, s1, a3
    9b0c:	f39ff06f          	j	9a44 <dram_input_stream_issue_scatter_read(unsigned long, unsigned long, unsigned long, unsigned long, unsigned long, unsigned long, tt_uint64_t volatile* rvtt_l1_ptr, unsigned long&, unsigned long&, unsigned long&, unsigned long)+0xb8>
decompress_scatter_offsets(tt_uint64_t volatile* rvtt_l1_ptr, unsigned long&, unsigned long&, unsigned long&, dram_scatter_loop_t volatile* rvtt_l1_ptr):
/proj_sw/user_dev/jnie/budabackend/src/firmware/riscv/common/dram_stream_intf.cc:290
      scatter_loop_index = 0;
    9b10:	00092023          	sw	zero, 0(s2)
/proj_sw/user_dev/jnie/budabackend/src/firmware/riscv/common/dram_stream_intf.cc:291
      scatter_loop_inc = 0;
    9b14:	00042023          	sw	zero, 0(s0)
/proj_sw/user_dev/jnie/budabackend/src/firmware/riscv/common/dram_stream_intf.cc:292
      scatter_idx += DRAM_IO_IS_SCATTER_LOOP_SIZE;
    9b18:	0008a503          	lw	a0, 0(a7)
    9b1c:	00250513          	addi	a0, a0, 2
    9b20:	fe5ff06f          	j	9b04 <dram_input_stream_issue_scatter_read(unsigned long, unsigned long, unsigned long, unsigned long, unsigned long, unsigned long, tt_uint64_t volatile* rvtt_l1_ptr, unsigned long&, unsigned long&, unsigned long&, unsigned long)+0x178>
dram_input_stream_issue_scatter_read(unsigned long, unsigned long, unsigned long, unsigned long, unsigned long, unsigned long, tt_uint64_t volatile* rvtt_l1_ptr, unsigned long&, unsigned long&, unsigned long&, unsigned long):
/proj_sw/user_dev/jnie/budabackend/src/firmware/riscv/common/dram_stream_intf.cc:340

    decompress_scatter_offsets(scatter_offsets, scatter_idx, scatter_loop_index, scatter_loop_inc, dram_scatter_loop);
  }
}
    9b24:	02c12403          	lw	s0, 44(sp)
    9b28:	02812483          	lw	s1, 40(sp)
    9b2c:	02412903          	lw	s2, 36(sp)
    9b30:	02012983          	lw	s3, 32(sp)
    9b34:	01c12a03          	lw	s4, 28(sp)
    9b38:	01812a83          	lw	s5, 24(sp)
    9b3c:	01412b03          	lw	s6, 20(sp)
    9b40:	01012b83          	lw	s7, 16(sp)
    9b44:	00c12c03          	lw	s8, 12(sp)
    9b48:	00812c83          	lw	s9, 8(sp)
    9b4c:	00412d03          	lw	s10, 4(sp)
    9b50:	00012d83          	lw	s11, 0(sp)
    9b54:	03010113          	addi	sp, sp, 48
    9b58:	00008067          	ret

00009b5c <risc_stream_resart_check(unsigned long&, unsigned long&, active_stream_info_t*) [clone .constprop.0]>:
stream_done_hint():
/proj_sw/user_dev/jnie/budabackend/src/firmware/riscv/wormhole/stream_interface.h:367
  }
  return debug_assert > 0;
}

inline bool stream_done_hint() {
  uint32_t stream_done = NOC_STREAM_READ_REG(0, STREAM_BLOB_AUTO_CFG_DONE_REG_INDEX) | NOC_STREAM_READ_REG(0, STREAM_BLOB_AUTO_CFG_DONE_REG_INDEX + 1);
    9b5c:	ffb407b7          	lui	a5, 0xffb40
    9b60:	3a87a703          	lw	a4, 936(a5) # ffb403a8 <TENSIX_MAILBOX_BASE+0xffc803a8>
    9b64:	3ac7a683          	lw	a3, 940(a5)
risc_stream_resart_check(unsigned long&, unsigned long&, active_stream_info_t*):
/proj_sw/user_dev/jnie/budabackend/src/firmware/riscv/common/unpack_pack_stream_intf.cc:501

  init_tile_clear();
}


void risc_stream_resart_check(
    9b68:	fc010113          	addi	sp, sp, -64
    9b6c:	03412423          	sw	s4, 40(sp)
    9b70:	02112e23          	sw	ra, 60(sp)
    9b74:	02812c23          	sw	s0, 56(sp)
    9b78:	02912a23          	sw	s1, 52(sp)
    9b7c:	03212823          	sw	s2, 48(sp)
    9b80:	03312623          	sw	s3, 44(sp)
    9b84:	03512223          	sw	s5, 36(sp)
    9b88:	03612023          	sw	s6, 32(sp)
    9b8c:	01712e23          	sw	s7, 28(sp)
    9b90:	01812c23          	sw	s8, 24(sp)
    9b94:	01912a23          	sw	s9, 20(sp)
    9b98:	01a12823          	sw	s10, 16(sp)
    9b9c:	01b12623          	sw	s11, 12(sp)
stream_done_hint():
/proj_sw/user_dev/jnie/budabackend/src/firmware/riscv/wormhole/stream_interface.h:367
    9ba0:	00d76733          	or	a4, a4, a3
risc_stream_resart_check(unsigned long&, unsigned long&, active_stream_info_t*):
/proj_sw/user_dev/jnie/budabackend/src/firmware/riscv/common/unpack_pack_stream_intf.cc:501
    9ba4:	00050a13          	mv	s4, a0
stream_done_hint():
/proj_sw/user_dev/jnie/budabackend/src/firmware/riscv/wormhole/stream_interface.h:368
  if (stream_done) {
    9ba8:	00070a63          	beqz	a4, 9bbc <risc_stream_resart_check(unsigned long&, unsigned long&, active_stream_info_t*) [clone .constprop.0]+0x60>
/proj_sw/user_dev/jnie/budabackend/src/firmware/riscv/wormhole/stream_interface.h:369
    NOC_STREAM_WRITE_REG(0, STREAM_BLOB_AUTO_CFG_DONE_REG_INDEX, 0xFFFFFFFF);
    9bac:	fff00713          	li	a4, -1
    9bb0:	3ae7a423          	sw	a4, 936(a5)
/proj_sw/user_dev/jnie/budabackend/src/firmware/riscv/wormhole/stream_interface.h:370
    NOC_STREAM_WRITE_REG(0, STREAM_BLOB_AUTO_CFG_DONE_REG_INDEX + 1, 0xFFFFFFFF);
    9bb4:	3ae7a623          	sw	a4, 940(a5)
risc_stream_resart_check(unsigned long&, unsigned long&, active_stream_info_t*):
/proj_sw/user_dev/jnie/budabackend/src/firmware/riscv/common/unpack_pack_stream_intf.cc:506
  uint32_t &stream_restart_check_cnt,
  uint32_t &num_active_streams, active_stream_info_t *active_stream_info
  ) {
  if (stream_done_hint())
    stream_restart_check_cnt = 0;
    9bb8:	00052023          	sw	zero, 0(a0)
/proj_sw/user_dev/jnie/budabackend/src/firmware/riscv/common/unpack_pack_stream_intf.cc:508

  bool check_stream_restart = (stream_restart_check_cnt == 0);
    9bbc:	000a2983          	lw	s3, 0(s4)
/proj_sw/user_dev/jnie/budabackend/src/firmware/riscv/common/unpack_pack_stream_intf.cc:509
  stream_restart_check_cnt = (stream_restart_check_cnt + 1) & STREAM_RESTART_CHECK_MASK;
    9bc0:	00198793          	addi	a5, s3, 1
    9bc4:	0077f793          	andi	a5, a5, 7
    9bc8:	00fa2023          	sw	a5, 0(s4)
/proj_sw/user_dev/jnie/budabackend/src/firmware/riscv/common/unpack_pack_stream_intf.cc:511

  if (check_stream_restart) {
    9bcc:	24099463          	bnez	s3, 9e14 <risc_stream_resart_check(unsigned long&, unsigned long&, active_stream_info_t*) [clone .constprop.0]+0x2b8>
/proj_sw/user_dev/jnie/budabackend/src/firmware/riscv/common/unpack_pack_stream_intf.cc:512
    active_stream_info_t * curr_active_stream_info = active_stream_info;
    9bd0:	0000fb37          	lui	s6, 0xf
stream_phase_is_active(unsigned long):
/proj_sw/user_dev/jnie/budabackend/src/firmware/riscv/wormhole/stream_interface.h:62
  return NOC_STREAM_READ_REG_FIELD(stream_id, STREAM_WAIT_STATUS_REG_INDEX, MSG_FWD_ONGOING);
    9bd4:	00100ab7          	lui	s5, 0x100
stream_src_endpoint_get_phase_tiles_count(unsigned long):
/proj_sw/user_dev/jnie/budabackend/src/firmware/riscv/wormhole/stream_interface.h:170
  return NOC_STREAM_READ_REG(stream_id, STREAM_REMOTE_SRC_PHASE_REG_INDEX) & 0xffff;  // used as scratch reg for source endpoint streams
    9bd8:	00010bb7          	lui	s7, 0x10
risc_stream_resart_check(unsigned long&, unsigned long&, active_stream_info_t*):
/proj_sw/user_dev/jnie/budabackend/src/firmware/riscv/common/unpack_pack_stream_intf.cc:548
      if (stream_curr_iter_done) {
        if (epoch_iters_remaining == 0) {
          continue;
        }
        else {
          volatile epoch_stream_info_t tt_l1_ptr * l1_stream_info = RISC_EPOCH_INFO_PTR->active_streams[i];
    9bdc:	00020c37          	lui	s8, 0x20
/proj_sw/user_dev/jnie/budabackend/src/firmware/riscv/common/unpack_pack_stream_intf.cc:512
    active_stream_info_t * curr_active_stream_info = active_stream_info;
    9be0:	4c0b0493          	addi	s1, s6, 1216 # f4c0 <active_stream_info>
stream_phase_is_active(unsigned long):
/proj_sw/user_dev/jnie/budabackend/src/firmware/riscv/wormhole/stream_interface.h:62
  return NOC_STREAM_READ_REG_FIELD(stream_id, STREAM_WAIT_STATUS_REG_INDEX, MSG_FWD_ONGOING);
    9be4:	b40a8a93          	addi	s5, s5, -1216 # ffb40 <noc_nonblocking_api.cc.88b5909b+0xdcdbc>
    9be8:	4c0b0b13          	addi	s6, s6, 1216
stream_get_curr_phase_num_msgs(unsigned long):
/proj_sw/user_dev/jnie/budabackend/src/firmware/riscv/wormhole/stream_interface.h:197
  return NOC_STREAM_READ_REG_FIELD(stream_id, STREAM_PHASE_AUTO_CFG_HEADER_REG_INDEX, CURR_PHASE_NUM_MSGS);
    9bec:	00001cb7          	lui	s9, 0x1
stream_src_endpoint_get_phase_tiles_count(unsigned long):
/proj_sw/user_dev/jnie/budabackend/src/firmware/riscv/wormhole/stream_interface.h:170
  return NOC_STREAM_READ_REG(stream_id, STREAM_REMOTE_SRC_PHASE_REG_INDEX) & 0xffff;  // used as scratch reg for source endpoint streams
    9bf0:	fffb8b93          	addi	s7, s7, -1 # ffff <dram_input_stream_state+0x177>
risc_stream_resart_check(unsigned long&, unsigned long&, active_stream_info_t*):
/proj_sw/user_dev/jnie/budabackend/src/firmware/riscv/common/unpack_pack_stream_intf.cc:548
          volatile epoch_stream_info_t tt_l1_ptr * l1_stream_info = RISC_EPOCH_INFO_PTR->active_streams[i];
    9bf4:	080c0c13          	addi	s8, s8, 128 # 20080 <risc_chip_specific.cc.5b7d4a1c+0x10a4>
/proj_sw/user_dev/jnie/budabackend/src/firmware/riscv/common/unpack_pack_stream_intf.cc:514
        i < num_active_streams;
    9bf8:	180b2783          	lw	a5, 384(s6)
    9bfc:	20f9fc63          	bgeu	s3, a5, 9e14 <risc_stream_resart_check(unsigned long&, unsigned long&, active_stream_info_t*) [clone .constprop.0]+0x2b8>
/proj_sw/user_dev/jnie/budabackend/src/firmware/riscv/common/unpack_pack_stream_intf.cc:517
      uint32_t stream_id = curr_active_stream_info->stream_id;
    9c00:	0004cd03          	lbu	s10, 0(s1)
RISC_POST_STATUS(unsigned long):
/proj_sw/user_dev/jnie/budabackend/src/firmware/riscv/targets/erisc/src/risc.h:26
    9c04:	ffb207b7          	lui	a5, 0xffb20
    9c08:	b0000737          	lui	a4, 0xb0000
stream_phase_is_active(unsigned long):
/proj_sw/user_dev/jnie/budabackend/src/firmware/riscv/wormhole/stream_interface.h:62
  return NOC_STREAM_READ_REG_FIELD(stream_id, STREAM_WAIT_STATUS_REG_INDEX, MSG_FWD_ONGOING);
    9c0c:	015d0433          	add	s0, s10, s5
risc_stream_resart_check(unsigned long&, unsigned long&, active_stream_info_t*):
/proj_sw/user_dev/jnie/budabackend/src/firmware/riscv/common/unpack_pack_stream_intf.cc:518
      uint32_t flags = curr_active_stream_info->flags;
    9c10:	0064d903          	lhu	s2, 6(s1)
stream_phase_is_active(unsigned long):
/proj_sw/user_dev/jnie/budabackend/src/firmware/riscv/wormhole/stream_interface.h:62
    9c14:	00c41413          	slli	s0, s0, 0xc
RISC_POST_STATUS(unsigned long):
/proj_sw/user_dev/jnie/budabackend/src/firmware/riscv/targets/erisc/src/risc.h:26
    9c18:	10e7a623          	sw	a4, 268(a5) # ffb2010c <TENSIX_MAILBOX_BASE+0xffc6010c>
stream_phase_is_active(unsigned long):
/proj_sw/user_dev/jnie/budabackend/src/firmware/riscv/wormhole/stream_interface.h:62
    9c1c:	08c42783          	lw	a5, 140(s0)
check_dummy_phase(unsigned long):
/proj_sw/user_dev/jnie/budabackend/src/firmware/riscv/wormhole/stream_interface.h:421

  return false;
}

inline void check_dummy_phase(uint32_t stream_id) {
  if (stream_phase_is_active(stream_id)) {
    9c20:	0047f793          	andi	a5, a5, 4
    9c24:	04078663          	beqz	a5, 9c70 <risc_stream_resart_check(unsigned long&, unsigned long&, active_stream_info_t*) [clone .constprop.0]+0x114>
stream_get_curr_phase(unsigned long):
/proj_sw/user_dev/jnie/budabackend/src/firmware/riscv/wormhole/stream_interface.h:66
  return NOC_STREAM_READ_REG(stream_id, STREAM_CURR_PHASE_REG_INDEX);
    9c28:	02c42783          	lw	a5, 44(s0)
check_dummy_phase(unsigned long):
/proj_sw/user_dev/jnie/budabackend/src/firmware/riscv/wormhole/stream_interface.h:423
    uint32_t cur_phase = stream_get_curr_phase(stream_id) >> EPOCH_SHIFT; 
    if (cur_phase == 0x1F) {
    9c2c:	01f00713          	li	a4, 31
/proj_sw/user_dev/jnie/budabackend/src/firmware/riscv/wormhole/stream_interface.h:422
    uint32_t cur_phase = stream_get_curr_phase(stream_id) >> EPOCH_SHIFT; 
    9c30:	00f7d793          	srli	a5, a5, 0xf
/proj_sw/user_dev/jnie/budabackend/src/firmware/riscv/wormhole/stream_interface.h:423
    if (cur_phase == 0x1F) {
    9c34:	02e79e63          	bne	a5, a4, 9c70 <risc_stream_resart_check(unsigned long&, unsigned long&, active_stream_info_t*) [clone .constprop.0]+0x114>
/proj_sw/user_dev/jnie/budabackend/src/firmware/riscv/wormhole/stream_interface.h:424
      if (NOC_STREAM_READ_REG_FIELD(stream_id, STREAM_MISC_CFG_REG_INDEX, SOURCE_ENDPOINT)) {
    9c38:	02842783          	lw	a5, 40(s0)
    9c3c:	0107f793          	andi	a5, a5, 16
    9c40:	02078863          	beqz	a5, 9c70 <risc_stream_resart_check(unsigned long&, unsigned long&, active_stream_info_t*) [clone .constprop.0]+0x114>
/proj_sw/user_dev/jnie/budabackend/src/firmware/riscv/wormhole/stream_interface.h:425
        uint32_t buf_size = NOC_STREAM_READ_REG(stream_id, STREAM_BUF_SIZE_REG_INDEX);
    9c44:	01c42603          	lw	a2, 28(s0)
/proj_sw/user_dev/jnie/budabackend/src/firmware/riscv/wormhole/stream_interface.h:426
        uint32_t buf_space_available = NOC_STREAM_READ_REG(stream_id, STREAM_BUF_SPACE_AVAILABLE_REG_INDEX);
    9c48:	07042703          	lw	a4, 112(s0)
stream_get_curr_phase_num_msgs(unsigned long):
/proj_sw/user_dev/jnie/budabackend/src/firmware/riscv/wormhole/stream_interface.h:197
  return NOC_STREAM_READ_REG_FIELD(stream_id, STREAM_PHASE_AUTO_CFG_HEADER_REG_INDEX, CURR_PHASE_NUM_MSGS);
    9c4c:	09042783          	lw	a5, 144(s0)
check_dummy_phase(unsigned long):
/proj_sw/user_dev/jnie/budabackend/src/firmware/riscv/wormhole/stream_interface.h:429
        uint32_t num_tiles = stream_get_curr_phase_num_msgs(stream_id);
    
        if (buf_space_available == buf_size && num_tiles > 0) {
    9c50:	02e61063          	bne	a2, a4, 9c70 <risc_stream_resart_check(unsigned long&, unsigned long&, active_stream_info_t*) [clone .constprop.0]+0x114>
stream_get_curr_phase_num_msgs(unsigned long):
/proj_sw/user_dev/jnie/budabackend/src/firmware/riscv/wormhole/stream_interface.h:197
  return NOC_STREAM_READ_REG_FIELD(stream_id, STREAM_PHASE_AUTO_CFG_HEADER_REG_INDEX, CURR_PHASE_NUM_MSGS);
    9c54:	00001737          	lui	a4, 0x1
    9c58:	00c7d793          	srli	a5, a5, 0xc
    9c5c:	fff70713          	addi	a4, a4, -1 # fff <__firmware_stack_size+0xbff>
    9c60:	00e7f7b3          	and	a5, a5, a4
check_dummy_phase(unsigned long):
/proj_sw/user_dev/jnie/budabackend/src/firmware/riscv/wormhole/stream_interface.h:429
        if (buf_space_available == buf_size && num_tiles > 0) {
    9c64:	00078663          	beqz	a5, 9c70 <risc_stream_resart_check(unsigned long&, unsigned long&, active_stream_info_t*) [clone .constprop.0]+0x114>
stream_relay_tiles(unsigned long, unsigned long, unsigned long):
/proj_sw/user_dev/jnie/budabackend/src/firmware/riscv/wormhole/stream_interface.h:207
  NOC_STREAM_WRITE_REG(stream_id, STREAM_NUM_MSGS_RECEIVED_INC_REG_INDEX, (num_words << SOURCE_ENDPOINT_NEW_MSGS_TOTAL_SIZE) | num_tiles);
    9c68:	001c8793          	addi	a5, s9, 1 # 1001 <__firmware_stack_size+0xc01>
    9c6c:	06f42c23          	sw	a5, 120(s0)
risc_stream_resart_check(unsigned long&, unsigned long&, active_stream_info_t*):
/proj_sw/user_dev/jnie/budabackend/src/firmware/riscv/common/unpack_pack_stream_intf.cc:523
      if ((flags & STREAM_OUTPUT_PARK) != 0) {
    9c70:	08097793          	andi	a5, s2, 128
    9c74:	04078863          	beqz	a5, 9cc4 <risc_stream_resart_check(unsigned long&, unsigned long&, active_stream_info_t*) [clone .constprop.0]+0x168>
/proj_sw/user_dev/jnie/budabackend/src/firmware/riscv/common/unpack_pack_stream_intf.cc:524
        if ((flags & STREAM_INTERMEDIATE) != 0 || (flags & STREAM_MOVES_RAW_DATA) != 0) {
    9c78:	05097793          	andi	a5, s2, 80
stream_receiver_endpoint_single_clear_op(unsigned long, unsigned long):
/proj_sw/user_dev/jnie/budabackend/src/firmware/riscv/wormhole/stream_interface.h:311
  NOC_STREAM_WRITE_REG(stream_id, STREAM_MSG_INFO_CLEAR_REG_INDEX, num_tiles);
    9c7c:	00100713          	li	a4, 1
risc_stream_resart_check(unsigned long&, unsigned long&, active_stream_info_t*):
/proj_sw/user_dev/jnie/budabackend/src/firmware/riscv/common/unpack_pack_stream_intf.cc:524
    9c80:	10078c63          	beqz	a5, 9d98 <risc_stream_resart_check(unsigned long&, unsigned long&, active_stream_info_t*) [clone .constprop.0]+0x23c>
/proj_sw/user_dev/jnie/budabackend/src/firmware/riscv/common/unpack_pack_stream_intf.cc:525
          volatile uint32_t tt_reg_ptr* tiles_received_ptr = (volatile uint32_t tt_reg_ptr*)get_operand_tiles_received_ptr(stream_id_to_operand(stream_id));
    9c84:	000d0513          	mv	a0, s10
    9c88:	ffbf6097          	auipc	ra, 0xffbf6
    9c8c:	3fc080e7          	jalr	1020(ra) # ffc00084 <TENSIX_MAILBOX_BASE+0xffd40084>
get_operand_tiles_received_ptr(int):
/proj_sw/user_dev/jnie/budabackend/src/firmware/riscv/wormhole/stream_io_map.h:147

  #endif
#endif

inline __attribute__((always_inline)) volatile uint32_t * tt_reg_ptr get_operand_tiles_received_ptr(int operand) {
  return (volatile uint32_t tt_reg_ptr *)(uintptr_t)(STREAM_REG_ADDR(get_operand_stream_id(operand), STREAM_REMOTE_DEST_BUF_SIZE_REG_INDEX));
    9c90:	ffbf6097          	auipc	ra, 0xffbf6
    9c94:	3b8080e7          	jalr	952(ra) # ffc00048 <TENSIX_MAILBOX_BASE+0xffd40048>
    9c98:	01550db3          	add	s11, a0, s5
risc_stream_resart_check(unsigned long&, unsigned long&, active_stream_info_t*):
/proj_sw/user_dev/jnie/budabackend/src/firmware/riscv/common/unpack_pack_stream_intf.cc:526
          volatile uint32_t tt_reg_ptr* tiles_acked_ptr = (volatile uint32_t tt_reg_ptr*)get_operand_tiles_acked_ptr(stream_id_to_operand(stream_id));
    9c9c:	000d0513          	mv	a0, s10
    9ca0:	ffbf6097          	auipc	ra, 0xffbf6
    9ca4:	3e4080e7          	jalr	996(ra) # ffc00084 <TENSIX_MAILBOX_BASE+0xffd40084>
get_operand_tiles_received_ptr(int):
/proj_sw/user_dev/jnie/budabackend/src/firmware/riscv/wormhole/stream_io_map.h:147
    9ca8:	00cd9d93          	slli	s11, s11, 0xc
get_operand_tiles_acked_ptr(int):
/proj_sw/user_dev/jnie/budabackend/src/firmware/riscv/wormhole/stream_io_map.h:159
  } else {
    return (volatile uint32_t tt_reg_ptr *)(uintptr_t)(STREAM_REG_ADDR(get_operand_stream_id(operand), STREAM_REMOTE_DEST_BUF_START_REG_INDEX));
  }
#else
inline __attribute__((always_inline)) volatile uint32_t * tt_reg_ptr get_operand_tiles_acked_ptr(int operand) {
  return (volatile uint32_t tt_reg_ptr *)(uintptr_t)(STREAM_REG_ADDR(get_operand_stream_id(operand), STREAM_REMOTE_DEST_BUF_START_REG_INDEX));
    9cac:	ffbf6097          	auipc	ra, 0xffbf6
    9cb0:	39c080e7          	jalr	924(ra) # ffc00048 <TENSIX_MAILBOX_BASE+0xffd40048>
risc_stream_resart_check(unsigned long&, unsigned long&, active_stream_info_t*):
/proj_sw/user_dev/jnie/budabackend/src/firmware/riscv/common/unpack_pack_stream_intf.cc:527
          tiles_acked_ptr[0] = tiles_received_ptr[0];
    9cb4:	010da783          	lw	a5, 16(s11)
get_operand_tiles_acked_ptr(int):
/proj_sw/user_dev/jnie/budabackend/src/firmware/riscv/wormhole/stream_io_map.h:159
    9cb8:	01550533          	add	a0, a0, s5
    9cbc:	00c51513          	slli	a0, a0, 0xc
risc_stream_resart_check(unsigned long&, unsigned long&, active_stream_info_t*):
/proj_sw/user_dev/jnie/budabackend/src/firmware/riscv/common/unpack_pack_stream_intf.cc:527
    9cc0:	00f52623          	sw	a5, 12(a0)
/proj_sw/user_dev/jnie/budabackend/src/firmware/riscv/common/unpack_pack_stream_intf.cc:537
                                      ((flags & STREAM_MOVES_RAW_DATA) == 0) &&
    9cc4:	44097713          	andi	a4, s2, 1088
    9cc8:	00000793          	li	a5, 0
    9ccc:	00071e63          	bnez	a4, 9ce8 <risc_stream_resart_check(unsigned long&, unsigned long&, active_stream_info_t*) [clone .constprop.0]+0x18c>
stream_phase_advance_wait(unsigned long):
/proj_sw/user_dev/jnie/budabackend/src/firmware/riscv/wormhole/stream_interface.h:92
  uint32_t advance_wait = NOC_STREAM_READ_REG_FIELD(stream_id, STREAM_WAIT_STATUS_REG_INDEX, WAIT_SW_PHASE_ADVANCE_SIGNAL);
    9cd0:	08c42603          	lw	a2, 140(s0)
/proj_sw/user_dev/jnie/budabackend/src/firmware/riscv/wormhole/stream_interface.h:93
  uint32_t num_tiles_pending = NOC_STREAM_READ_REG(stream_id, STREAM_DEBUG_STATUS_REG_INDEX+9) >> MEM_WORD_ADDR_WIDTH;
    9cd4:	3a442703          	lw	a4, 932(s0)
/proj_sw/user_dev/jnie/budabackend/src/firmware/riscv/wormhole/stream_interface.h:92
  uint32_t advance_wait = NOC_STREAM_READ_REG_FIELD(stream_id, STREAM_WAIT_STATUS_REG_INDEX, WAIT_SW_PHASE_ADVANCE_SIGNAL);
    9cd8:	00167613          	andi	a2, a2, 1
/proj_sw/user_dev/jnie/budabackend/src/firmware/riscv/wormhole/stream_interface.h:94
  return advance_wait && (num_tiles_pending == 0);
    9cdc:	00060663          	beqz	a2, 9ce8 <risc_stream_resart_check(unsigned long&, unsigned long&, active_stream_info_t*) [clone .constprop.0]+0x18c>
/proj_sw/user_dev/jnie/budabackend/src/firmware/riscv/wormhole/stream_interface.h:93
  uint32_t num_tiles_pending = NOC_STREAM_READ_REG(stream_id, STREAM_DEBUG_STATUS_REG_INDEX+9) >> MEM_WORD_ADDR_WIDTH;
    9ce0:	01175793          	srli	a5, a4, 0x11
/proj_sw/user_dev/jnie/budabackend/src/firmware/riscv/wormhole/stream_interface.h:94
  return advance_wait && (num_tiles_pending == 0);
    9ce4:	0017b793          	seqz	a5, a5
risc_stream_resart_check(unsigned long&, unsigned long&, active_stream_info_t*):
/proj_sw/user_dev/jnie/budabackend/src/firmware/riscv/common/unpack_pack_stream_intf.cc:539
      if ((flags & STREAM_DRAM_INPUT) != 0 && ((flags & STREAM_DRAM_IO) != 0 || (flags & STREAM_DRAM_STREAMING) != 0)) {
    9ce8:	00497713          	andi	a4, s2, 4
    9cec:	00070e63          	beqz	a4, 9d08 <risc_stream_resart_check(unsigned long&, unsigned long&, active_stream_info_t*) [clone .constprop.0]+0x1ac>
    9cf0:	02297713          	andi	a4, s2, 34
    9cf4:	00070a63          	beqz	a4, 9d08 <risc_stream_resart_check(unsigned long&, unsigned long&, active_stream_info_t*) [clone .constprop.0]+0x1ac>
stream_src_endpoint_get_phase_tiles_count(unsigned long):
/proj_sw/user_dev/jnie/budabackend/src/firmware/riscv/wormhole/stream_interface.h:170
  return NOC_STREAM_READ_REG(stream_id, STREAM_REMOTE_SRC_PHASE_REG_INDEX) & 0xffff;  // used as scratch reg for source endpoint streams
    9cf8:	00442703          	lw	a4, 4(s0)
    9cfc:	01777733          	and	a4, a4, s7
risc_stream_resart_check(unsigned long&, unsigned long&, active_stream_info_t*):
/proj_sw/user_dev/jnie/budabackend/src/firmware/riscv/common/unpack_pack_stream_intf.cc:540
        stream_curr_iter_done &= stream_src_endpoint_get_phase_tiles_count(stream_id) == 0;
    9d00:	00173713          	seqz	a4, a4
    9d04:	00e7f7b3          	and	a5, a5, a4
/proj_sw/user_dev/jnie/budabackend/src/firmware/riscv/common/unpack_pack_stream_intf.cc:543
      if (stream_curr_iter_done) {
    9d08:	0a078e63          	beqz	a5, 9dc4 <risc_stream_resart_check(unsigned long&, unsigned long&, active_stream_info_t*) [clone .constprop.0]+0x268>
/proj_sw/user_dev/jnie/budabackend/src/firmware/riscv/common/unpack_pack_stream_intf.cc:535
      uint32_t epoch_iters_remaining = curr_active_stream_info->epoch_iters_remaining;
    9d0c:	0084a783          	lw	a5, 8(s1)
/proj_sw/user_dev/jnie/budabackend/src/firmware/riscv/common/unpack_pack_stream_intf.cc:544
        if (epoch_iters_remaining == 0) {
    9d10:	06078e63          	beqz	a5, 9d8c <risc_stream_resart_check(unsigned long&, unsigned long&, active_stream_info_t*) [clone .constprop.0]+0x230>
/proj_sw/user_dev/jnie/budabackend/src/firmware/riscv/common/unpack_pack_stream_intf.cc:548
          volatile epoch_stream_info_t tt_l1_ptr * l1_stream_info = RISC_EPOCH_INFO_PTR->active_streams[i];
    9d14:	04498713          	addi	a4, s3, 68
    9d18:	00271713          	slli	a4, a4, 0x2
    9d1c:	00ec0733          	add	a4, s8, a4
    9d20:	00472703          	lw	a4, 4(a4)
/proj_sw/user_dev/jnie/budabackend/src/firmware/riscv/common/unpack_pack_stream_intf.cc:549
          epoch_iters_remaining--;
    9d24:	fff78793          	addi	a5, a5, -1
/proj_sw/user_dev/jnie/budabackend/src/firmware/riscv/common/unpack_pack_stream_intf.cc:550
          curr_active_stream_info->epoch_iters_remaining = epoch_iters_remaining;
    9d28:	00f4a423          	sw	a5, 8(s1)
/proj_sw/user_dev/jnie/budabackend/src/firmware/riscv/common/unpack_pack_stream_intf.cc:551
          if (epoch_iters_remaining > 0) {
    9d2c:	08078863          	beqz	a5, 9dbc <risc_stream_resart_check(unsigned long&, unsigned long&, active_stream_info_t*) [clone .constprop.0]+0x260>
stream_reset(unsigned long):
/proj_sw/user_dev/jnie/budabackend/src/firmware/riscv/wormhole/stream_interface.h:348
  uint32_t val = NOC_STREAM_READ_REG(stream_id, STREAM_MISC_CFG_REG_INDEX);
    9d30:	02842783          	lw	a5, 40(s0)
risc_stream_resart_check(unsigned long&, unsigned long&, active_stream_info_t*):
/proj_sw/user_dev/jnie/budabackend/src/firmware/riscv/common/unpack_pack_stream_intf.cc:560
            uint32_t start_phase_num_cfg_regs = curr_active_stream_info->start_phase_num_cfg_regs;

            stream_phase_blob_run(stream_id, blob_start_addr, start_phase_num_cfg_regs);

            bool need_restart =
                ((flags & STREAM_DRAM_INPUT) != 0) && ((flags & STREAM_DRAM_IO) == 0) && ((flags & STREAM_DRAM_STREAMING) == 0) &&
    9d34:	00400693          	li	a3, 4
stream_reset(unsigned long):
/proj_sw/user_dev/jnie/budabackend/src/firmware/riscv/wormhole/stream_interface.h:349
  val &= (~(1<<PHASE_AUTO_CONFIG));
    9d38:	dff7f793          	andi	a5, a5, -513
/proj_sw/user_dev/jnie/budabackend/src/firmware/riscv/wormhole/stream_interface.h:350
  NOC_STREAM_WRITE_REG(stream_id, STREAM_MISC_CFG_REG_INDEX, val); // disable auto-config
    9d3c:	02f42423          	sw	a5, 40(s0)
/proj_sw/user_dev/jnie/budabackend/src/firmware/riscv/wormhole/stream_interface.h:351
  NOC_STREAM_WRITE_REG(stream_id, STREAM_RESET_REG_INDEX, 0x1);
    9d40:	00100793          	li	a5, 1
    9d44:	06f42e23          	sw	a5, 124(s0)
risc_stream_resart_check(unsigned long&, unsigned long&, active_stream_info_t*):
/proj_sw/user_dev/jnie/budabackend/src/firmware/riscv/common/unpack_pack_stream_intf.cc:554
            uint32_t blob_start_addr = l1_stream_info->blob_start_addr;
    9d48:	02472703          	lw	a4, 36(a4)
/proj_sw/user_dev/jnie/budabackend/src/firmware/riscv/common/unpack_pack_stream_intf.cc:555
            uint32_t start_phase_num_cfg_regs = curr_active_stream_info->start_phase_num_cfg_regs;
    9d4c:	0024c783          	lbu	a5, 2(s1)
stream_phase_blob_run(unsigned long, unsigned long, unsigned long):
/proj_sw/user_dev/jnie/budabackend/src/firmware/riscv/wormhole/stream_interface.h:26
  NOC_STREAM_WRITE_REG(stream_id, STREAM_RECEIVER_ENDPOINT_MULTI_TILE_CLEAR_REG_INDEX, 0); // Prevent accidental clearing
    9d50:	02042223          	sw	zero, 36(s0)
/proj_sw/user_dev/jnie/budabackend/src/firmware/riscv/wormhole/stream_interface.h:29
  NOC_STREAM_WRITE_REG(stream_id, STREAM_PHASE_AUTO_CFG_HEADER_REG_INDEX, start_phase_num_cfg_regs << NEXT_PHASE_NUM_CFG_REG_WRITES);
    9d54:	01879793          	slli	a5, a5, 0x18
/proj_sw/user_dev/jnie/budabackend/src/firmware/riscv/wormhole/stream_interface.h:28
  NOC_STREAM_WRITE_REG(stream_id, STREAM_PHASE_AUTO_CFG_PTR_REG_INDEX, blob_start_addr);
    9d58:	02e42823          	sw	a4, 48(s0)
/proj_sw/user_dev/jnie/budabackend/src/firmware/riscv/wormhole/stream_interface.h:29
  NOC_STREAM_WRITE_REG(stream_id, STREAM_PHASE_AUTO_CFG_HEADER_REG_INDEX, start_phase_num_cfg_regs << NEXT_PHASE_NUM_CFG_REG_WRITES);
    9d5c:	08f42823          	sw	a5, 144(s0)
/proj_sw/user_dev/jnie/budabackend/src/firmware/riscv/wormhole/stream_interface.h:30
  NOC_STREAM_WRITE_REG(stream_id, STREAM_MISC_CFG_REG_INDEX, (0x1 << PHASE_AUTO_CONFIG) | (1 << NEXT_PHASE_SRC_CHANGE) | (1 << NEXT_PHASE_DEST_CHANGE));
    9d60:	000037b7          	lui	a5, 0x3
    9d64:	20078793          	addi	a5, a5, 512 # 3200 <__firmware_start+0x1200>
    9d68:	02f42423          	sw	a5, 40(s0)
risc_stream_resart_check(unsigned long&, unsigned long&, active_stream_info_t*):
/proj_sw/user_dev/jnie/budabackend/src/firmware/riscv/common/unpack_pack_stream_intf.cc:560
                ((flags & STREAM_DRAM_INPUT) != 0) && ((flags & STREAM_DRAM_IO) == 0) && ((flags & STREAM_DRAM_STREAMING) == 0) &&
    9d6c:	02697713          	andi	a4, s2, 38
    9d70:	00000793          	li	a5, 0
    9d74:	00d71663          	bne	a4, a3, 9d80 <risc_stream_resart_check(unsigned long&, unsigned long&, active_stream_info_t*) [clone .constprop.0]+0x224>
    9d78:	05097913          	andi	s2, s2, 80
    9d7c:	012037b3          	snez	a5, s2
/proj_sw/user_dev/jnie/budabackend/src/firmware/riscv/common/unpack_pack_stream_intf.cc:562
                ((flags & STREAM_INTERMEDIATE) != 0 || (flags & STREAM_MOVES_RAW_DATA) != 0);
            curr_active_stream_info->dram_prefetch_stream_need_restart = need_restart;
    9d80:	00f481a3          	sb	a5, 3(s1)
/proj_sw/user_dev/jnie/budabackend/src/firmware/riscv/common/unpack_pack_stream_intf.cc:563
            stream_restart_check_cnt = !need_restart;
    9d84:	0017c913          	xori	s2, a5, 1
    9d88:	012a2023          	sw	s2, 0(s4)
/proj_sw/user_dev/jnie/budabackend/src/firmware/riscv/common/unpack_pack_stream_intf.cc:513
    for (uint32_t i = 0;
    9d8c:	00198993          	addi	s3, s3, 1
    9d90:	00c48493          	addi	s1, s1, 12
    9d94:	e65ff06f          	j	9bf8 <risc_stream_resart_check(unsigned long&, unsigned long&, active_stream_info_t*) [clone .constprop.0]+0x9c>
stream_clear_all_tiles(unsigned long):
/proj_sw/user_dev/jnie/budabackend/src/firmware/riscv/wormhole/stream_interface.h:516
  uint32_t msg_info_wr_ptr;
  uint32_t msg_info_rd_ptr;
  uint32_t num_msgs_recv;
  uint32_t num_msgs_recv_in_bufs_and_mem;
  do {
    msg_info_rd_ptr = NOC_STREAM_READ_REG(stream_id, STREAM_MSG_INFO_PTR_REG_INDEX);
    9d98:	02042583          	lw	a1, 32(s0)
/proj_sw/user_dev/jnie/budabackend/src/firmware/riscv/wormhole/stream_interface.h:517
    num_msgs_recv = NOC_STREAM_READ_REG(stream_id, STREAM_NUM_MSGS_RECEIVED_REG_INDEX);
    9d9c:	04842603          	lw	a2, 72(s0)
/proj_sw/user_dev/jnie/budabackend/src/firmware/riscv/wormhole/stream_interface.h:518
    msg_info_wr_ptr = NOC_STREAM_READ_REG(stream_id, STREAM_MSG_INFO_WR_PTR_REG_INDEX);
    9da0:	06842783          	lw	a5, 104(s0)
    9da4:	00f607b3          	add	a5, a2, a5
/proj_sw/user_dev/jnie/budabackend/src/firmware/riscv/wormhole/stream_interface.h:520
    num_msgs_recv_in_bufs_and_mem = msg_info_wr_ptr - msg_info_rd_ptr + num_msgs_recv;
    if (num_msgs_recv > 0) {
    9da8:	00060663          	beqz	a2, 9db4 <risc_stream_resart_check(unsigned long&, unsigned long&, active_stream_info_t*) [clone .constprop.0]+0x258>
stream_receiver_endpoint_single_clear_op(unsigned long, unsigned long):
/proj_sw/user_dev/jnie/budabackend/src/firmware/riscv/wormhole/stream_interface.h:311
  NOC_STREAM_WRITE_REG(stream_id, STREAM_MSG_INFO_CLEAR_REG_INDEX, num_tiles);
    9dac:	04e42a23          	sw	a4, 84(s0)
/proj_sw/user_dev/jnie/budabackend/src/firmware/riscv/wormhole/stream_interface.h:312
  NOC_STREAM_WRITE_REG(stream_id, STREAM_MSG_DATA_CLEAR_REG_INDEX, num_tiles);
    9db0:	04e42c23          	sw	a4, 88(s0)
stream_clear_all_tiles(unsigned long):
/proj_sw/user_dev/jnie/budabackend/src/firmware/riscv/wormhole/stream_interface.h:523
      stream_receiver_endpoint_single_clear_op(stream_id, 1);
    }
  } while (num_msgs_recv_in_bufs_and_mem > 0);
    9db4:	feb792e3          	bne	a5, a1, 9d98 <risc_stream_resart_check(unsigned long&, unsigned long&, active_stream_info_t*) [clone .constprop.0]+0x23c>
    9db8:	f0dff06f          	j	9cc4 <risc_stream_resart_check(unsigned long&, unsigned long&, active_stream_info_t*) [clone .constprop.0]+0x168>
risc_stream_resart_check(unsigned long&, unsigned long&, active_stream_info_t*):
/proj_sw/user_dev/jnie/budabackend/src/firmware/riscv/common/unpack_pack_stream_intf.cc:566
          }
          else {
            l1_stream_info->epoch_iters_remaining = 0;
    9dbc:	02072823          	sw	zero, 48(a4)
    9dc0:	fcdff06f          	j	9d8c <risc_stream_resart_check(unsigned long&, unsigned long&, active_stream_info_t*) [clone .constprop.0]+0x230>
/proj_sw/user_dev/jnie/budabackend/src/firmware/riscv/common/unpack_pack_stream_intf.cc:578
            }
#endif
          }
        }
      }
      else if (curr_active_stream_info->dram_prefetch_stream_need_restart) {
    9dc4:	0034c783          	lbu	a5, 3(s1)
    9dc8:	fc0782e3          	beqz	a5, 9d8c <risc_stream_resart_check(unsigned long&, unsigned long&, active_stream_info_t*) [clone .constprop.0]+0x230>
stream_phase_is_active(unsigned long):
/proj_sw/user_dev/jnie/budabackend/src/firmware/riscv/wormhole/stream_interface.h:62
  return NOC_STREAM_READ_REG_FIELD(stream_id, STREAM_WAIT_STATUS_REG_INDEX, MSG_FWD_ONGOING);
    9dcc:	08c42783          	lw	a5, 140(s0)
risc_stream_resart_check(unsigned long&, unsigned long&, active_stream_info_t*):
/proj_sw/user_dev/jnie/budabackend/src/firmware/riscv/common/unpack_pack_stream_intf.cc:580
        uint32_t stream_restarted = stream_phase_is_active(stream_id);
        if (stream_restarted) {                     
    9dd0:	0047f793          	andi	a5, a5, 4
    9dd4:	fa078ce3          	beqz	a5, 9d8c <risc_stream_resart_check(unsigned long&, unsigned long&, active_stream_info_t*) [clone .constprop.0]+0x230>
/proj_sw/user_dev/jnie/budabackend/src/firmware/riscv/common/unpack_pack_stream_intf.cc:582
          uint32_t stream_phase_tiles = stream_src_endpoint_get_phase_tiles_count(stream_id);
          volatile uint32_t tt_reg_ptr* tiles_received_ptr = (volatile uint32_t tt_reg_ptr*)get_operand_tiles_received_ptr(stream_id_to_operand(stream_id));
    9dd8:	000d0513          	mv	a0, s10
stream_src_endpoint_get_phase_tiles_count(unsigned long):
/proj_sw/user_dev/jnie/budabackend/src/firmware/riscv/wormhole/stream_interface.h:170
  return NOC_STREAM_READ_REG(stream_id, STREAM_REMOTE_SRC_PHASE_REG_INDEX) & 0xffff;  // used as scratch reg for source endpoint streams
    9ddc:	00442403          	lw	s0, 4(s0)
risc_stream_resart_check(unsigned long&, unsigned long&, active_stream_info_t*):
/proj_sw/user_dev/jnie/budabackend/src/firmware/riscv/common/unpack_pack_stream_intf.cc:582
    9de0:	ffbf6097          	auipc	ra, 0xffbf6
    9de4:	2a4080e7          	jalr	676(ra) # ffc00084 <TENSIX_MAILBOX_BASE+0xffd40084>
get_operand_tiles_received_ptr(int):
/proj_sw/user_dev/jnie/budabackend/src/firmware/riscv/wormhole/stream_io_map.h:147
  return (volatile uint32_t tt_reg_ptr *)(uintptr_t)(STREAM_REG_ADDR(get_operand_stream_id(operand), STREAM_REMOTE_DEST_BUF_SIZE_REG_INDEX));
    9de8:	ffbf6097          	auipc	ra, 0xffbf6
    9dec:	260080e7          	jalr	608(ra) # ffc00048 <TENSIX_MAILBOX_BASE+0xffd40048>
    9df0:	01550533          	add	a0, a0, s5
    9df4:	00c51513          	slli	a0, a0, 0xc
risc_stream_resart_check(unsigned long&, unsigned long&, active_stream_info_t*):
/proj_sw/user_dev/jnie/budabackend/src/firmware/riscv/common/unpack_pack_stream_intf.cc:583
          uint16_t operand_tiles_received = (uint16_t)tiles_received_ptr[0];
    9df8:	01052783          	lw	a5, 16(a0)
op_pack_tiles_ptr_add(unsigned short, unsigned short):
/proj_sw/user_dev/jnie/budabackend/src/firmware/riscv/wormhole/risc_chip_specific.h:47
  return a + b;
    9dfc:	008787b3          	add	a5, a5, s0
risc_stream_resart_check(unsigned long&, unsigned long&, active_stream_info_t*):
/proj_sw/user_dev/jnie/budabackend/src/firmware/riscv/common/unpack_pack_stream_intf.cc:585
          uint16_t new_epoch_tiles_received = op_pack_tiles_ptr_add(operand_tiles_received, stream_phase_tiles);
          tiles_received_ptr[0] = new_epoch_tiles_received;
    9e00:	01079793          	slli	a5, a5, 0x10
    9e04:	0107d793          	srli	a5, a5, 0x10
    9e08:	00f52823          	sw	a5, 16(a0)
/proj_sw/user_dev/jnie/budabackend/src/firmware/riscv/common/unpack_pack_stream_intf.cc:586
          curr_active_stream_info->dram_prefetch_stream_need_restart = 0;
    9e0c:	000481a3          	sb	zero, 3(s1)
    9e10:	f7dff06f          	j	9d8c <risc_stream_resart_check(unsigned long&, unsigned long&, active_stream_info_t*) [clone .constprop.0]+0x230>
/proj_sw/user_dev/jnie/budabackend/src/firmware/riscv/common/unpack_pack_stream_intf.cc:591
        }
      }
    }
  }
}
    9e14:	03c12083          	lw	ra, 60(sp)
    9e18:	03812403          	lw	s0, 56(sp)
    9e1c:	03412483          	lw	s1, 52(sp)
    9e20:	03012903          	lw	s2, 48(sp)
    9e24:	02c12983          	lw	s3, 44(sp)
    9e28:	02812a03          	lw	s4, 40(sp)
    9e2c:	02412a83          	lw	s5, 36(sp)
    9e30:	02012b03          	lw	s6, 32(sp)
    9e34:	01c12b83          	lw	s7, 28(sp)
    9e38:	01812c03          	lw	s8, 24(sp)
    9e3c:	01412c83          	lw	s9, 20(sp)
    9e40:	01012d03          	lw	s10, 16(sp)
    9e44:	00c12d83          	lw	s11, 12(sp)
    9e48:	04010113          	addi	sp, sp, 64
    9e4c:	00008067          	ret

00009e50 <ncrisc_noc_fast_read_l1(unsigned long, unsigned long, unsigned long long, unsigned long, unsigned long, unsigned long) [clone .constprop.0]>:
NOC_STATUS_READ_REG_L1(unsigned long, unsigned long):
/proj_sw/user_dev/jnie/budabackend/src/firmware/riscv/wormhole/noc_nonblocking_api.h:70
  uint32_t offset = (noc << NOC_INSTANCE_OFFSET_BIT) + NOC_STATUS(reg_id);
    9e50:	3fec88b7          	lui	a7, 0x3fec8
    9e54:	09088893          	addi	a7, a7, 144 # 3fec8090 <noc_nonblocking_api.cc.88b5909b+0x3fea530c>
    9e58:	011788b3          	add	a7, a5, a7
    9e5c:	01051813          	slli	a6, a0, 0x10
    9e60:	00289893          	slli	a7, a7, 0x2
    9e64:	010888b3          	add	a7, a7, a6
ncrisc_noc_fast_read_l1(unsigned long, unsigned long, unsigned long long, unsigned long, unsigned long, unsigned long):
/proj_sw/user_dev/jnie/budabackend/src/firmware/riscv/wormhole/noc_nonblocking_api.cc:4
#include "noc_nonblocking_api.h"

void ncrisc_noc_fast_read_l1(uint32_t noc, uint32_t cmd_buf, uint64_t src_addr, uint32_t dest_addr, uint32_t len_bytes, uint32_t transaction_id) {
  while (NOC_STATUS_READ_REG_L1(noc, NIU_MST_REQS_OUTSTANDING_ID(transaction_id)) > ((NOC_MAX_TRANSACTION_ID_COUNT+1)/2));
    9e68:	08000313          	li	t1, 128
NOC_STATUS_READ_REG_L1(unsigned long, unsigned long):
/proj_sw/user_dev/jnie/budabackend/src/firmware/riscv/wormhole/noc_nonblocking_api.h:72
  return *ptr;
    9e6c:	0008ae03          	lw	t3, 0(a7)
ncrisc_noc_fast_read_l1(unsigned long, unsigned long, unsigned long long, unsigned long, unsigned long, unsigned long):
/proj_sw/user_dev/jnie/budabackend/src/firmware/riscv/wormhole/noc_nonblocking_api.cc:4
    9e70:	ffc36ee3          	bltu	t1, t3, 9e6c <ncrisc_noc_fast_read_l1(unsigned long, unsigned long, unsigned long long, unsigned long, unsigned long, unsigned long) [clone .constprop.0]+0x1c>
/proj_sw/user_dev/jnie/budabackend/src/firmware/riscv/wormhole/noc_nonblocking_api.cc:6

  if (len_bytes > 0) {
    9e74:	04070e63          	beqz	a4, 9ed0 <ncrisc_noc_fast_read_l1(unsigned long, unsigned long, unsigned long long, unsigned long, unsigned long, unsigned long) [clone .constprop.0]+0x80>
/proj_sw/user_dev/jnie/budabackend/src/firmware/riscv/wormhole/noc_nonblocking_api.cc:9
    //word offset noc cmd interface
    uint32_t noc_rd_cmd_field = NOC_CMD_CPY | NOC_CMD_RD | NOC_CMD_RESP_MARKED | NOC_CMD_VC_STATIC | NOC_CMD_STATIC_VC(1);
    uint32_t offset = (cmd_buf << NOC_CMD_BUF_OFFSET_BIT) + (noc << NOC_INSTANCE_OFFSET_BIT);
    9e78:	000018b7          	lui	a7, 0x1
    9e7c:	c0088893          	addi	a7, a7, -1024 # c00 <__firmware_stack_size+0x800>
    9e80:	01180833          	add	a6, a6, a7
/proj_sw/user_dev/jnie/budabackend/src/firmware/riscv/wormhole/noc_nonblocking_api.cc:12
    volatile uint32_t* ptr = (volatile uint32_t*)offset;

    ptr[NOC_RET_ADDR_LO >> 2] = dest_addr;
    9e84:	ffb208b7          	lui	a7, 0xffb20
    9e88:	01180333          	add	t1, a6, a7
    9e8c:	00d32623          	sw	a3, 12(t1)
/proj_sw/user_dev/jnie/budabackend/src/firmware/riscv/wormhole/noc_nonblocking_api.cc:13
    ptr[NOC_RET_ADDR_MID >> 2] = noc_xy_local_addr[noc];
    9e90:	0000f6b7          	lui	a3, 0xf
    9e94:	40468693          	addi	a3, a3, 1028 # f404 <noc_xy_local_addr>
    9e98:	00251513          	slli	a0, a0, 0x2
    9e9c:	00a68533          	add	a0, a3, a0
    9ea0:	00052683          	lw	a3, 0(a0)
/proj_sw/user_dev/jnie/budabackend/src/firmware/riscv/wormhole/noc_nonblocking_api.cc:17
    ptr[NOC_CTRL >> 2] = noc_rd_cmd_field;
    ptr[NOC_TARG_ADDR_LO >> 2] = (uint32_t)src_addr;
    ptr[NOC_TARG_ADDR_MID >> 2] = src_addr >> 32;
    ptr[NOC_PACKET_TAG >> 2] = NOC_PACKET_TAG_TRANSACTION_ID(transaction_id);
    9ea4:	00a79793          	slli	a5, a5, 0xa
/proj_sw/user_dev/jnie/budabackend/src/firmware/riscv/wormhole/noc_nonblocking_api.cc:13
    ptr[NOC_RET_ADDR_MID >> 2] = noc_xy_local_addr[noc];
    9ea8:	00d32823          	sw	a3, 16(t1)
/proj_sw/user_dev/jnie/budabackend/src/firmware/riscv/wormhole/noc_nonblocking_api.cc:14
    ptr[NOC_CTRL >> 2] = noc_rd_cmd_field;
    9eac:	000026b7          	lui	a3, 0x2
    9eb0:	09068693          	addi	a3, a3, 144 # 2090 <__firmware_start+0x90>
    9eb4:	00d32e23          	sw	a3, 28(t1)
/proj_sw/user_dev/jnie/budabackend/src/firmware/riscv/wormhole/noc_nonblocking_api.cc:15
    ptr[NOC_TARG_ADDR_LO >> 2] = (uint32_t)src_addr;
    9eb8:	00b32023          	sw	a1, 0(t1)
/proj_sw/user_dev/jnie/budabackend/src/firmware/riscv/wormhole/noc_nonblocking_api.cc:16
    ptr[NOC_TARG_ADDR_MID >> 2] = src_addr >> 32;
    9ebc:	00c32223          	sw	a2, 4(t1)
/proj_sw/user_dev/jnie/budabackend/src/firmware/riscv/wormhole/noc_nonblocking_api.cc:17
    ptr[NOC_PACKET_TAG >> 2] = NOC_PACKET_TAG_TRANSACTION_ID(transaction_id);
    9ec0:	00f32c23          	sw	a5, 24(t1)
/proj_sw/user_dev/jnie/budabackend/src/firmware/riscv/wormhole/noc_nonblocking_api.cc:18
    ptr[NOC_AT_LEN_BE >> 2] = len_bytes;
    9ec4:	02e32023          	sw	a4, 32(t1)
/proj_sw/user_dev/jnie/budabackend/src/firmware/riscv/wormhole/noc_nonblocking_api.cc:19
    ptr[NOC_CMD_CTRL >> 2] = NOC_CTRL_SEND_REQ;
    9ec8:	00100793          	li	a5, 1
    9ecc:	02f32423          	sw	a5, 40(t1)
/proj_sw/user_dev/jnie/budabackend/src/firmware/riscv/wormhole/noc_nonblocking_api.cc:21
  }
}
    9ed0:	00008067          	ret

00009ed4 <ncrisc_noc_fast_read_any_len_l1(unsigned long, unsigned long, unsigned long long, unsigned long, unsigned long, unsigned long) [clone .constprop.0]>:
NOC_CMD_BUF_READ_REG_L1(unsigned long, unsigned long, unsigned long):
/proj_sw/user_dev/jnie/budabackend/src/firmware/riscv/wormhole/noc_nonblocking_api.h:63
  uint32_t offset = (buf << NOC_CMD_BUF_OFFSET_BIT) + (noc << NOC_INSTANCE_OFFSET_BIT) + addr;
    9ed4:	ffb218b7          	lui	a7, 0xffb21
    9ed8:	01051813          	slli	a6, a0, 0x10
    9edc:	c2888893          	addi	a7, a7, -984 # ffb20c28 <TENSIX_MAILBOX_BASE+0xffc60c28>
    9ee0:	01180833          	add	a6, a6, a7
/proj_sw/user_dev/jnie/budabackend/src/firmware/riscv/wormhole/noc_nonblocking_api.h:65
  return *ptr;
    9ee4:	00082883          	lw	a7, 0(a6)
ncrisc_noc_fast_read_any_len_l1(unsigned long, unsigned long, unsigned long long, unsigned long, unsigned long, unsigned long):
/proj_sw/user_dev/jnie/budabackend/src/firmware/riscv/wormhole/noc_nonblocking_api.cc:51
  }
}

#ifdef RISC_B0_HW
void ncrisc_noc_fast_read_any_len_l1(uint32_t noc, uint32_t cmd_buf, uint64_t src_addr, uint32_t dest_addr, uint32_t len_bytes, uint32_t transaction_id) {
  while (!ncrisc_noc_fast_read_ok_l1(noc, cmd_buf));
    9ee8:	fe089ee3          	bnez	a7, 9ee4 <ncrisc_noc_fast_read_any_len_l1(unsigned long, unsigned long, unsigned long long, unsigned long, unsigned long, unsigned long) [clone .constprop.0]+0x10>
/proj_sw/user_dev/jnie/budabackend/src/firmware/riscv/wormhole/noc_nonblocking_api.cc:52
  ncrisc_noc_fast_read_l1(noc, cmd_buf, src_addr, dest_addr, len_bytes, transaction_id); 
    9eec:	f65ff06f          	j	9e50 <ncrisc_noc_fast_read_l1(unsigned long, unsigned long, unsigned long long, unsigned long, unsigned long, unsigned long) [clone .constprop.0]>

00009ef0 <ncrisc_noc_fast_write_l1(unsigned long, unsigned long, unsigned long, unsigned long long, unsigned long, unsigned long, bool, bool, unsigned long, unsigned long) [clone .constprop.0]>:
NOC_STATUS_READ_REG_L1(unsigned long, unsigned long):
/proj_sw/user_dev/jnie/budabackend/src/firmware/riscv/wormhole/noc_nonblocking_api.h:70
  uint32_t offset = (noc << NOC_INSTANCE_OFFSET_BIT) + NOC_STATUS(reg_id);
    9ef0:	3fec8337          	lui	t1, 0x3fec8
    9ef4:	09030313          	addi	t1, t1, 144 # 3fec8090 <noc_nonblocking_api.cc.88b5909b+0x3fea530c>
    9ef8:	00680333          	add	t1, a6, t1
    9efc:	01051893          	slli	a7, a0, 0x10
    9f00:	00231313          	slli	t1, t1, 0x2
    9f04:	01130333          	add	t1, t1, a7
ncrisc_noc_fast_write_l1(unsigned long, unsigned long, unsigned long, unsigned long long, unsigned long, unsigned long, bool, bool, unsigned long, unsigned long):
/proj_sw/user_dev/jnie/budabackend/src/firmware/riscv/wormhole/noc_nonblocking_api.cc:24
  while (NOC_STATUS_READ_REG_L1(noc, NIU_MST_REQS_OUTSTANDING_ID(transaction_id)) > ((NOC_MAX_TRANSACTION_ID_COUNT+1)/2));
    9f08:	08000e13          	li	t3, 128
NOC_STATUS_READ_REG_L1(unsigned long, unsigned long):
/proj_sw/user_dev/jnie/budabackend/src/firmware/riscv/wormhole/noc_nonblocking_api.h:72
  return *ptr;
    9f0c:	00032e83          	lw	t4, 0(t1)
ncrisc_noc_fast_write_l1(unsigned long, unsigned long, unsigned long, unsigned long long, unsigned long, unsigned long, bool, bool, unsigned long, unsigned long):
/proj_sw/user_dev/jnie/budabackend/src/firmware/riscv/wormhole/noc_nonblocking_api.cc:24
    9f10:	ffde6ee3          	bltu	t3, t4, 9f0c <ncrisc_noc_fast_write_l1(unsigned long, unsigned long, unsigned long, unsigned long long, unsigned long, unsigned long, bool, bool, unsigned long, unsigned long) [clone .constprop.0]+0x1c>
/proj_sw/user_dev/jnie/budabackend/src/firmware/riscv/wormhole/noc_nonblocking_api.cc:26
  if (len_bytes > 0) {
    9f14:	04070e63          	beqz	a4, 9f70 <ncrisc_noc_fast_write_l1(unsigned long, unsigned long, unsigned long, unsigned long long, unsigned long, unsigned long, bool, bool, unsigned long, unsigned long) [clone .constprop.0]+0x80>
/proj_sw/user_dev/jnie/budabackend/src/firmware/riscv/wormhole/noc_nonblocking_api.cc:30
      NOC_CMD_STATIC_VC(vc) |
    9f18:	00d79793          	slli	a5, a5, 0xd
/proj_sw/user_dev/jnie/budabackend/src/firmware/riscv/wormhole/noc_nonblocking_api.cc:27
    uint32_t noc_cmd_field =
    9f1c:	0927e313          	ori	t1, a5, 146
/proj_sw/user_dev/jnie/budabackend/src/firmware/riscv/wormhole/noc_nonblocking_api.cc:36
    uint32_t offset = (cmd_buf << NOC_CMD_BUF_OFFSET_BIT) + (noc << NOC_INSTANCE_OFFSET_BIT);
    9f20:	000017b7          	lui	a5, 0x1
    9f24:	c0078793          	addi	a5, a5, -1024 # c00 <__firmware_stack_size+0x800>
    9f28:	00f887b3          	add	a5, a7, a5
/proj_sw/user_dev/jnie/budabackend/src/firmware/riscv/wormhole/noc_nonblocking_api.cc:38
    ptr[NOC_CTRL >> 2] = noc_cmd_field;
    9f2c:	ffb208b7          	lui	a7, 0xffb20
    9f30:	01178e33          	add	t3, a5, a7
    9f34:	006e2e23          	sw	t1, 28(t3)
/proj_sw/user_dev/jnie/budabackend/src/firmware/riscv/wormhole/noc_nonblocking_api.cc:39
    ptr[NOC_TARG_ADDR_LO >> 2] = src_addr;
    9f38:	00be2023          	sw	a1, 0(t3)
/proj_sw/user_dev/jnie/budabackend/src/firmware/riscv/wormhole/noc_nonblocking_api.cc:40
    ptr[NOC_TARG_ADDR_MID >> 2] = noc_xy_local_addr[noc];
    9f3c:	0000f5b7          	lui	a1, 0xf
    9f40:	00251893          	slli	a7, a0, 0x2
    9f44:	40458513          	addi	a0, a1, 1028 # f404 <noc_xy_local_addr>
    9f48:	01150533          	add	a0, a0, a7
    9f4c:	00052583          	lw	a1, 0(a0)
/proj_sw/user_dev/jnie/budabackend/src/firmware/riscv/wormhole/noc_nonblocking_api.cc:43
    ptr[NOC_PACKET_TAG >> 2] = NOC_PACKET_TAG_TRANSACTION_ID(transaction_id);
    9f50:	00a81813          	slli	a6, a6, 0xa
/proj_sw/user_dev/jnie/budabackend/src/firmware/riscv/wormhole/noc_nonblocking_api.cc:40
    ptr[NOC_TARG_ADDR_MID >> 2] = noc_xy_local_addr[noc];
    9f54:	00be2223          	sw	a1, 4(t3)
/proj_sw/user_dev/jnie/budabackend/src/firmware/riscv/wormhole/noc_nonblocking_api.cc:41
    ptr[NOC_RET_ADDR_LO >> 2] = (uint32_t)dest_addr;
    9f58:	00ce2623          	sw	a2, 12(t3)
/proj_sw/user_dev/jnie/budabackend/src/firmware/riscv/wormhole/noc_nonblocking_api.cc:42
    ptr[NOC_RET_ADDR_MID >> 2] = dest_addr >> 32;
    9f5c:	00de2823          	sw	a3, 16(t3)
/proj_sw/user_dev/jnie/budabackend/src/firmware/riscv/wormhole/noc_nonblocking_api.cc:43
    ptr[NOC_PACKET_TAG >> 2] = NOC_PACKET_TAG_TRANSACTION_ID(transaction_id);
    9f60:	010e2c23          	sw	a6, 24(t3)
/proj_sw/user_dev/jnie/budabackend/src/firmware/riscv/wormhole/noc_nonblocking_api.cc:44
    ptr[NOC_AT_LEN_BE >> 2] = len_bytes;
    9f64:	02ee2023          	sw	a4, 32(t3)
/proj_sw/user_dev/jnie/budabackend/src/firmware/riscv/wormhole/noc_nonblocking_api.cc:45
    ptr[NOC_CMD_CTRL >> 2] = NOC_CTRL_SEND_REQ;
    9f68:	00100713          	li	a4, 1
    9f6c:	02ee2423          	sw	a4, 40(t3)
/proj_sw/user_dev/jnie/budabackend/src/firmware/riscv/wormhole/noc_nonblocking_api.cc:47
}
    9f70:	00008067          	ret

00009f74 <replicate_l1(unsigned long, unsigned long, unsigned long long, unsigned long, unsigned long, unsigned long) [clone .constprop.0]>:
replicate_l1(unsigned long, unsigned long, unsigned long long, unsigned long, unsigned long, unsigned long):
/proj_sw/user_dev/jnie/budabackend/src/firmware/riscv/wormhole/risc_chip_specific.cc:260
                          REPLICATE_VC, false, false, 1, transaction_id);
    dest_addr += chunk_size_bytes;
  }
}

void replicate_l1(uint32_t noc_id, uint32_t src_addr, uint64_t dest_addr, uint32_t chunk_size_bytes, uint32_t times_to_replicate, uint32_t transaction_id) {
    9f74:	fd010113          	addi	sp, sp, -48
    9f78:	01712623          	sw	s7, 12(sp)
    9f7c:	00078b93          	mv	s7, a5
NOC_CMD_BUF_READ_REG_L1(unsigned long, unsigned long, unsigned long):
/proj_sw/user_dev/jnie/budabackend/src/firmware/riscv/wormhole/noc_nonblocking_api.h:63
  uint32_t offset = (buf << NOC_CMD_BUF_OFFSET_BIT) + (noc << NOC_INSTANCE_OFFSET_BIT) + addr;
    9f80:	ffb217b7          	lui	a5, 0xffb21
replicate_l1(unsigned long, unsigned long, unsigned long long, unsigned long, unsigned long, unsigned long):
/proj_sw/user_dev/jnie/budabackend/src/firmware/riscv/wormhole/risc_chip_specific.cc:260
    9f84:	01612823          	sw	s6, 16(sp)
NOC_CMD_BUF_READ_REG_L1(unsigned long, unsigned long, unsigned long):
/proj_sw/user_dev/jnie/budabackend/src/firmware/riscv/wormhole/noc_nonblocking_api.h:63
    9f88:	c2878793          	addi	a5, a5, -984 # ffb20c28 <TENSIX_MAILBOX_BASE+0xffc60c28>
    9f8c:	01051b13          	slli	s6, a0, 0x10
replicate_l1(unsigned long, unsigned long, unsigned long long, unsigned long, unsigned long, unsigned long):
/proj_sw/user_dev/jnie/budabackend/src/firmware/riscv/wormhole/risc_chip_specific.cc:260
    9f90:	02812423          	sw	s0, 40(sp)
    9f94:	02912223          	sw	s1, 36(sp)
    9f98:	03212023          	sw	s2, 32(sp)
    9f9c:	01312e23          	sw	s3, 28(sp)
    9fa0:	01412c23          	sw	s4, 24(sp)
    9fa4:	01512a23          	sw	s5, 20(sp)
    9fa8:	02112623          	sw	ra, 44(sp)
    9fac:	00050993          	mv	s3, a0
    9fb0:	00058a93          	mv	s5, a1
    9fb4:	00060413          	mv	s0, a2
    9fb8:	00068493          	mv	s1, a3
    9fbc:	00070913          	mv	s2, a4
NOC_CMD_BUF_READ_REG_L1(unsigned long, unsigned long, unsigned long):
/proj_sw/user_dev/jnie/budabackend/src/firmware/riscv/wormhole/noc_nonblocking_api.h:63
    9fc0:	00fb0b33          	add	s6, s6, a5
replicate_l1(unsigned long, unsigned long, unsigned long long, unsigned long, unsigned long, unsigned long):
/proj_sw/user_dev/jnie/budabackend/src/firmware/riscv/wormhole/risc_chip_specific.cc:267
#ifdef RISC_B0_HW
  uint32_t replicate_cmd_buf = NCRISC_SMALL_TXN_CMD_BUF;
#else
  uint32_t replicate_cmd_buf = NCRISC_WR_CMD_BUF;
#endif
  for (uint32_t j = 0; j < times_to_replicate; j++) {
    9fc4:	00000a13          	li	s4, 0
    9fc8:	057a0063          	beq	s4, s7, a008 <replicate_l1(unsigned long, unsigned long, unsigned long long, unsigned long, unsigned long, unsigned long) [clone .constprop.0]+0x94>
NOC_CMD_BUF_READ_REG_L1(unsigned long, unsigned long, unsigned long):
/proj_sw/user_dev/jnie/budabackend/src/firmware/riscv/wormhole/noc_nonblocking_api.h:65
  return *ptr;
    9fcc:	000b2783          	lw	a5, 0(s6)
replicate_l1(unsigned long, unsigned long, unsigned long long, unsigned long, unsigned long, unsigned long):
/proj_sw/user_dev/jnie/budabackend/src/firmware/riscv/wormhole/risc_chip_specific.cc:268
    while (!ncrisc_noc_fast_write_ok_l1(noc_id, replicate_cmd_buf));
    9fd0:	fe079ee3          	bnez	a5, 9fcc <replicate_l1(unsigned long, unsigned long, unsigned long long, unsigned long, unsigned long, unsigned long) [clone .constprop.0]+0x58>
/proj_sw/user_dev/jnie/budabackend/src/firmware/riscv/wormhole/risc_chip_specific.cc:269
    ncrisc_noc_fast_write_l1(noc_id, replicate_cmd_buf,
    9fd4:	00090713          	mv	a4, s2
    9fd8:	00040613          	mv	a2, s0
    9fdc:	00048693          	mv	a3, s1
    9fe0:	00100813          	li	a6, 1
    9fe4:	000a8593          	mv	a1, s5
    9fe8:	00098513          	mv	a0, s3
    9fec:	f05ff0ef          	jal	ra, 9ef0 <ncrisc_noc_fast_write_l1(unsigned long, unsigned long, unsigned long, unsigned long long, unsigned long, unsigned long, bool, bool, unsigned long, unsigned long) [clone .constprop.0]>
/proj_sw/user_dev/jnie/budabackend/src/firmware/riscv/wormhole/risc_chip_specific.cc:274
                          src_addr,
                          dest_addr,
                          chunk_size_bytes,
                          REPLICATE_VC, false, false, 1, transaction_id);
    dest_addr += chunk_size_bytes;
    9ff0:	012407b3          	add	a5, s0, s2
    9ff4:	0087b733          	sltu	a4, a5, s0
    9ff8:	009704b3          	add	s1, a4, s1
    9ffc:	00078413          	mv	s0, a5
/proj_sw/user_dev/jnie/budabackend/src/firmware/riscv/wormhole/risc_chip_specific.cc:267
  for (uint32_t j = 0; j < times_to_replicate; j++) {
    a000:	001a0a13          	addi	s4, s4, 1
    a004:	fc5ff06f          	j	9fc8 <replicate_l1(unsigned long, unsigned long, unsigned long long, unsigned long, unsigned long, unsigned long) [clone .constprop.0]+0x54>
/proj_sw/user_dev/jnie/budabackend/src/firmware/riscv/wormhole/risc_chip_specific.cc:276
  }
}
    a008:	02c12083          	lw	ra, 44(sp)
    a00c:	02812403          	lw	s0, 40(sp)
    a010:	02412483          	lw	s1, 36(sp)
    a014:	02012903          	lw	s2, 32(sp)
    a018:	01c12983          	lw	s3, 28(sp)
    a01c:	01812a03          	lw	s4, 24(sp)
    a020:	01412a83          	lw	s5, 20(sp)
    a024:	01012b03          	lw	s6, 16(sp)
    a028:	00c12b83          	lw	s7, 12(sp)
    a02c:	03010113          	addi	sp, sp, 48
    a030:	00008067          	ret

0000a034 <risc_dram_stream_handler_init_l1(void*, unsigned long volatile&, unsigned long volatile&, unsigned long&, unsigned long&, unsigned long&, unsigned long&, unsigned long&, dram_q_state_t* rvtt_l1_ptr, dram_input_stream_state_t*, dram_output_stream_state_t*, active_stream_info_t* rvtt_l1_ptr, epoch_stream_info_t* rvtt_l1_ptr* rvtt_l1_ptr, active_stream_info_t** rvtt_l1_ptr) [clone .constprop.0]>:
risc_dram_stream_handler_init_l1(void*, unsigned long volatile&, unsigned long volatile&, unsigned long&, unsigned long&, unsigned long&, unsigned long&, unsigned long&, dram_q_state_t* rvtt_l1_ptr, dram_input_stream_state_t*, dram_output_stream_state_t*, active_stream_info_t* rvtt_l1_ptr, epoch_stream_info_t* rvtt_l1_ptr* rvtt_l1_ptr, active_stream_info_t** rvtt_l1_ptr):
/proj_sw/user_dev/jnie/budabackend/src/firmware/riscv/common/dram_stream_intf.cc:1050
    }
  }
}
#endif

void risc_dram_stream_handler_init_l1(
    a034:	f7010113          	addi	sp, sp, -144
    a038:	08812423          	sw	s0, 136(sp)
    a03c:	08912223          	sw	s1, 132(sp)
    a040:	09212023          	sw	s2, 128(sp)
    a044:	07312e23          	sw	s3, 124(sp)
    a048:	07412c23          	sw	s4, 120(sp)
    a04c:	07512a23          	sw	s5, 116(sp)
RISC_POST_STATUS(unsigned long):
/proj_sw/user_dev/jnie/budabackend/src/firmware/riscv/targets/erisc/src/risc.h:26
    a050:	ffb207b7          	lui	a5, 0xffb20
risc_dram_stream_handler_init_l1(void*, unsigned long volatile&, unsigned long volatile&, unsigned long&, unsigned long&, unsigned long&, unsigned long&, unsigned long&, dram_q_state_t* rvtt_l1_ptr, dram_input_stream_state_t*, dram_output_stream_state_t*, active_stream_info_t* rvtt_l1_ptr, epoch_stream_info_t* rvtt_l1_ptr* rvtt_l1_ptr, active_stream_info_t** rvtt_l1_ptr):
/proj_sw/user_dev/jnie/budabackend/src/firmware/riscv/common/dram_stream_intf.cc:1050
    a054:	08112623          	sw	ra, 140(sp)
    a058:	07612823          	sw	s6, 112(sp)
    a05c:	07712623          	sw	s7, 108(sp)
    a060:	07812423          	sw	s8, 104(sp)
    a064:	07912223          	sw	s9, 100(sp)
    a068:	07a12023          	sw	s10, 96(sp)
    a06c:	05b12e23          	sw	s11, 92(sp)
RISC_POST_STATUS(unsigned long):
/proj_sw/user_dev/jnie/budabackend/src/firmware/riscv/targets/erisc/src/risc.h:26
    a070:	1007a623          	sw	zero, 268(a5) # ffb2010c <TENSIX_MAILBOX_BASE+0xffc6010c>
    a074:	a0000737          	lui	a4, 0xa0000
    a078:	10e7a623          	sw	a4, 268(a5)
tile_header_buffer_init():
/proj_sw/user_dev/jnie/budabackend/src/firmware/riscv/common/risc_common.cc:94
  const uint32_t NUM_TILE_HEADER_BUF_CHUNKS = MAX_TILES_PER_PHASE / TILE_HEADER_BUF_INIT_CHUNK_WORDS;
  uint32_t header_buf_init_noc = NUM_NOCS-1-loading_noc;
  volatile uint32_t * tt_l1_ptr l1_tile_size_words_ptr = &(RISC_EPOCH_INFO_PTR->tile_size_words[0]);
  volatile uint32_t * tt_l1_ptr l1_tile_size_header_buf_addr_ptr = &(RISC_EPOCH_INFO_PTR->tile_size_header_buf_addr[0]);
  // L1 reads flushed by immediate usage
  uint32_t num_tile_sizes = RISC_EPOCH_INFO_PTR->num_tile_sizes;
    a07c:	000204b7          	lui	s1, 0x20
/proj_sw/user_dev/jnie/budabackend/src/firmware/riscv/common/risc_common.cc:90
  uint32_t header_buf_init_noc = NUM_NOCS-1-loading_noc;
    a080:	0000f7b7          	lui	a5, 0xf
    a084:	42a7c503          	lbu	a0, 1066(a5) # f42a <loading_noc>
/proj_sw/user_dev/jnie/budabackend/src/firmware/riscv/common/risc_common.cc:94
  uint32_t num_tile_sizes = RISC_EPOCH_INFO_PTR->num_tile_sizes;
    a088:	08048793          	addi	a5, s1, 128 # 20080 <risc_chip_specific.cc.5b7d4a1c+0x10a4>
    a08c:	0107aa83          	lw	s5, 16(a5)
/proj_sw/user_dev/jnie/budabackend/src/firmware/riscv/common/risc_common.cc:90
  uint32_t header_buf_init_noc = NUM_NOCS-1-loading_noc;
    a090:	00100413          	li	s0, 1
/proj_sw/user_dev/jnie/budabackend/src/firmware/riscv/common/risc_common.cc:106
    for (uint32_t j = 0; j < TILE_HEADER_BUF_INIT_CHUNK_WORDS; j++) {
      l1_header_buf_tile_size_ptr[0] = tile_size_words;
      l1_header_buf_tile_size_ptr += 4;
    }

    uint64_t tile_size_header_buf_curr_dest_addr = NOC_XY_ADDR(my_x[header_buf_init_noc], my_y[header_buf_init_noc], (tile_size_header_buf_addr + TILE_HEADER_BUF_INIT_CHUNK_BYTES));
    a094:	0000f9b7          	lui	s3, 0xf
    a098:	0000f937          	lui	s2, 0xf
/proj_sw/user_dev/jnie/budabackend/src/firmware/riscv/common/risc_common.cc:90
  uint32_t header_buf_init_noc = NUM_NOCS-1-loading_noc;
    a09c:	40a40433          	sub	s0, s0, a0
/proj_sw/user_dev/jnie/budabackend/src/firmware/riscv/common/risc_common.cc:106
    uint64_t tile_size_header_buf_curr_dest_addr = NOC_XY_ADDR(my_x[header_buf_init_noc], my_y[header_buf_init_noc], (tile_size_header_buf_addr + TILE_HEADER_BUF_INIT_CHUNK_BYTES));
    a0a0:	42898993          	addi	s3, s3, 1064 # f428 <my_y>
    a0a4:	42c90913          	addi	s2, s2, 1068 # f42c <my_x>
/proj_sw/user_dev/jnie/budabackend/src/firmware/riscv/common/risc_common.cc:95
  for (uint32_t i = 0; i < num_tile_sizes; i++) {
    a0a8:	00000a13          	li	s4, 0
/proj_sw/user_dev/jnie/budabackend/src/firmware/riscv/common/risc_common.cc:91
  volatile uint32_t * tt_l1_ptr l1_tile_size_words_ptr = &(RISC_EPOCH_INFO_PTR->tile_size_words[0]);
    a0ac:	09448493          	addi	s1, s1, 148
/proj_sw/user_dev/jnie/budabackend/src/firmware/riscv/common/risc_common.cc:106
    uint64_t tile_size_header_buf_curr_dest_addr = NOC_XY_ADDR(my_x[header_buf_init_noc], my_y[header_buf_init_noc], (tile_size_header_buf_addr + TILE_HEADER_BUF_INIT_CHUNK_BYTES));
    a0b0:	013409b3          	add	s3, s0, s3
    a0b4:	01240933          	add	s2, s0, s2
/proj_sw/user_dev/jnie/budabackend/src/firmware/riscv/common/risc_common.cc:95
  for (uint32_t i = 0; i < num_tile_sizes; i++) {
    a0b8:	054a8863          	beq	s5, s4, a108 <risc_dram_stream_handler_init_l1(void*, unsigned long volatile&, unsigned long volatile&, unsigned long&, unsigned long&, unsigned long&, unsigned long&, unsigned long&, dram_q_state_t* rvtt_l1_ptr, dram_input_stream_state_t*, dram_output_stream_state_t*, active_stream_info_t* rvtt_l1_ptr, epoch_stream_info_t* rvtt_l1_ptr* rvtt_l1_ptr, active_stream_info_t** rvtt_l1_ptr) [clone .constprop.0]+0xd4>
/proj_sw/user_dev/jnie/budabackend/src/firmware/riscv/common/risc_common.cc:96
    uint32_t tile_size_words = *l1_tile_size_words_ptr;
    a0bc:	0004a703          	lw	a4, 0(s1)
/proj_sw/user_dev/jnie/budabackend/src/firmware/riscv/common/risc_common.cc:97
    uint32_t tile_size_header_buf_addr = *l1_tile_size_header_buf_addr_ptr;
    a0c0:	0204a583          	lw	a1, 32(s1)
/proj_sw/user_dev/jnie/budabackend/src/firmware/riscv/common/risc_common.cc:98
    l1_tile_size_words_ptr++;
    a0c4:	00448493          	addi	s1, s1, 4
/proj_sw/user_dev/jnie/budabackend/src/firmware/riscv/common/risc_common.cc:100
    volatile uint32_t* l1_header_buf_tile_size_ptr = (volatile uint32_t*)tile_size_header_buf_addr;
    a0c8:	00058613          	mv	a2, a1
    a0cc:	40058793          	addi	a5, a1, 1024
/proj_sw/user_dev/jnie/budabackend/src/firmware/riscv/common/risc_common.cc:102
      l1_header_buf_tile_size_ptr[0] = tile_size_words;
    a0d0:	00e62023          	sw	a4, 0(a2)
/proj_sw/user_dev/jnie/budabackend/src/firmware/riscv/common/risc_common.cc:103
      l1_header_buf_tile_size_ptr += 4;
    a0d4:	01060613          	addi	a2, a2, 16
/proj_sw/user_dev/jnie/budabackend/src/firmware/riscv/common/risc_common.cc:101
    for (uint32_t j = 0; j < TILE_HEADER_BUF_INIT_CHUNK_WORDS; j++) {
    a0d8:	fef61ce3          	bne	a2, a5, a0d0 <risc_dram_stream_handler_init_l1(void*, unsigned long volatile&, unsigned long volatile&, unsigned long&, unsigned long&, unsigned long&, unsigned long&, unsigned long&, dram_q_state_t* rvtt_l1_ptr, dram_input_stream_state_t*, dram_output_stream_state_t*, active_stream_info_t* rvtt_l1_ptr, epoch_stream_info_t* rvtt_l1_ptr* rvtt_l1_ptr, active_stream_info_t** rvtt_l1_ptr) [clone .constprop.0]+0x9c>
/proj_sw/user_dev/jnie/budabackend/src/firmware/riscv/common/risc_common.cc:106
    uint64_t tile_size_header_buf_curr_dest_addr = NOC_XY_ADDR(my_x[header_buf_init_noc], my_y[header_buf_init_noc], (tile_size_header_buf_addr + TILE_HEADER_BUF_INIT_CHUNK_BYTES));
    a0dc:	0009c503          	lbu	a0, 0(s3)
    a0e0:	00094683          	lbu	a3, 0(s2)
    a0e4:	00a51513          	slli	a0, a0, 0xa
    a0e8:	00469693          	slli	a3, a3, 0x4
/proj_sw/user_dev/jnie/budabackend/src/firmware/riscv/common/risc_common.cc:107
    replicate_l1(header_buf_init_noc, tile_size_header_buf_addr, tile_size_header_buf_curr_dest_addr, TILE_HEADER_BUF_INIT_CHUNK_BYTES, NUM_TILE_HEADER_BUF_CHUNKS-1, NCRISC_WR_LOCAL_TRID);
    a0ec:	00d566b3          	or	a3, a0, a3
    a0f0:	01f00793          	li	a5, 31
    a0f4:	40000713          	li	a4, 1024
    a0f8:	00040513          	mv	a0, s0
/proj_sw/user_dev/jnie/budabackend/src/firmware/riscv/common/risc_common.cc:95
  for (uint32_t i = 0; i < num_tile_sizes; i++) {
    a0fc:	001a0a13          	addi	s4, s4, 1
/proj_sw/user_dev/jnie/budabackend/src/firmware/riscv/common/risc_common.cc:107
    replicate_l1(header_buf_init_noc, tile_size_header_buf_addr, tile_size_header_buf_curr_dest_addr, TILE_HEADER_BUF_INIT_CHUNK_BYTES, NUM_TILE_HEADER_BUF_CHUNKS-1, NCRISC_WR_LOCAL_TRID);
    a100:	e75ff0ef          	jal	ra, 9f74 <replicate_l1(unsigned long, unsigned long, unsigned long long, unsigned long, unsigned long, unsigned long) [clone .constprop.0]>
    a104:	fb5ff06f          	j	a0b8 <risc_dram_stream_handler_init_l1(void*, unsigned long volatile&, unsigned long volatile&, unsigned long&, unsigned long&, unsigned long&, unsigned long&, unsigned long&, dram_q_state_t* rvtt_l1_ptr, dram_input_stream_state_t*, dram_output_stream_state_t*, active_stream_info_t* rvtt_l1_ptr, epoch_stream_info_t* rvtt_l1_ptr* rvtt_l1_ptr, active_stream_info_t** rvtt_l1_ptr) [clone .constprop.0]+0x84>
NOC_STATUS_READ_REG_L1(unsigned long, unsigned long):
/proj_sw/user_dev/jnie/budabackend/src/firmware/riscv/wormhole/noc_nonblocking_api.h:70
  uint32_t offset = (noc << NOC_INSTANCE_OFFSET_BIT) + NOC_STATUS(reg_id);
    a108:	ffb20537          	lui	a0, 0xffb20
    a10c:	01041413          	slli	s0, s0, 0x10
    a110:	24450513          	addi	a0, a0, 580 # ffb20244 <TENSIX_MAILBOX_BASE+0xffc60244>
    a114:	00a40433          	add	s0, s0, a0
/proj_sw/user_dev/jnie/budabackend/src/firmware/riscv/wormhole/noc_nonblocking_api.h:72
  return *ptr;
    a118:	00042783          	lw	a5, 0(s0)
    a11c:	00f12623          	sw	a5, 12(sp)
tile_header_buffer_init():
/proj_sw/user_dev/jnie/budabackend/src/firmware/riscv/common/risc_common.cc:109
  }
  while (!ncrisc_noc_nonposted_writes_flushed_l1(header_buf_init_noc, NCRISC_WR_LOCAL_TRID));
    a120:	fe079ce3          	bnez	a5, a118 <risc_dram_stream_handler_init_l1(void*, unsigned long volatile&, unsigned long volatile&, unsigned long&, unsigned long&, unsigned long&, unsigned long&, unsigned long&, dram_q_state_t* rvtt_l1_ptr, dram_input_stream_state_t*, dram_output_stream_state_t*, active_stream_info_t* rvtt_l1_ptr, epoch_stream_info_t* rvtt_l1_ptr* rvtt_l1_ptr, active_stream_info_t** rvtt_l1_ptr) [clone .constprop.0]+0xe4>
RISC_POST_STATUS(unsigned long):
/proj_sw/user_dev/jnie/budabackend/src/firmware/riscv/targets/erisc/src/risc.h:26
    a124:	ffb207b7          	lui	a5, 0xffb20
    a128:	b0000737          	lui	a4, 0xb0000
    a12c:	10e7a623          	sw	a4, 268(a5) # ffb2010c <TENSIX_MAILBOX_BASE+0xffc6010c>
risc_dram_stream_handler_init_l1(void*, unsigned long volatile&, unsigned long volatile&, unsigned long&, unsigned long&, unsigned long&, unsigned long&, unsigned long&, dram_q_state_t* rvtt_l1_ptr, dram_input_stream_state_t*, dram_output_stream_state_t*, active_stream_info_t* rvtt_l1_ptr, epoch_stream_info_t* rvtt_l1_ptr* rvtt_l1_ptr, active_stream_info_t** rvtt_l1_ptr):
/proj_sw/user_dev/jnie/budabackend/src/firmware/riscv/common/dram_stream_intf.cc:1076
  tile_header_buffer_init();
  
#ifndef PERF_DUMP
  RISC_POST_STATUS(0xB0000000);
#endif
  uint32_t num_kernel_inputs = RISC_EPOCH_INFO_PTR->num_inputs;
    a130:	00020737          	lui	a4, 0x20
    a134:	08070793          	addi	a5, a4, 128 # 20080 <risc_chip_specific.cc.5b7d4a1c+0x10a4>
    a138:	08072703          	lw	a4, 128(a4)
/proj_sw/user_dev/jnie/budabackend/src/firmware/riscv/common/dram_stream_intf.cc:1077
  uint32_t num_kernel_outputs =RISC_EPOCH_INFO_PTR->num_outputs;
    a13c:	0047a703          	lw	a4, 4(a5)
/proj_sw/user_dev/jnie/budabackend/src/firmware/riscv/common/dram_stream_intf.cc:1079
  
  num_dram_input_streams = 0;
    a140:	00010437          	lui	s0, 0x10
/proj_sw/user_dev/jnie/budabackend/src/firmware/riscv/common/dram_stream_intf.cc:1081
  num_dram_output_streams = 0;
  num_active_dram_queues = 0;
    a144:	0000f4b7          	lui	s1, 0xf
/proj_sw/user_dev/jnie/budabackend/src/firmware/riscv/common/dram_stream_intf.cc:1079
  num_dram_input_streams = 0;
    a148:	4c040713          	addi	a4, s0, 1216 # 104c0 <input_stream_state+0xe0>
    a14c:	c0072a23          	sw	zero, -1004(a4)
/proj_sw/user_dev/jnie/budabackend/src/firmware/riscv/common/dram_stream_intf.cc:1080
  num_dram_output_streams = 0;
    a150:	c0072c23          	sw	zero, -1000(a4)
/proj_sw/user_dev/jnie/budabackend/src/firmware/riscv/common/dram_stream_intf.cc:1081
  num_active_dram_queues = 0;
    a154:	4c048713          	addi	a4, s1, 1216 # f4c0 <active_stream_info>
    a158:	72072223          	sw	zero, 1828(a4)
/proj_sw/user_dev/jnie/budabackend/src/firmware/riscv/common/dram_stream_intf.cc:1092
#endif
  global_sync(gsync_epoch, epochs_in_progress);
#endif

#ifdef ERISC
  uint32_t epoch_id = RISC_EPOCH_INFO_PTR->epoch_id;
    a15c:	28c7aa03          	lw	s4, 652(a5)
/proj_sw/user_dev/jnie/budabackend/src/firmware/riscv/common/dram_stream_intf.cc:1093
  bool has_eth_stream_trans = RISC_EPOCH_INFO_PTR->has_eth_stream_trans;
    a160:	2867ca83          	lbu	s5, 646(a5)
eth_epoch_sync(unsigned long, bool, unsigned long volatile&, unsigned long volatile&, void (*)()):
/proj_sw/user_dev/jnie/budabackend/src/firmware/riscv/targets/erisc/src/api/eth_init.cpp:795

void eth_epoch_sync(uint32_t epoch_id, bool has_eth_stream_trans, volatile uint32_t &epoch_id_to_send, volatile uint32_t &other_chip_epoch_id, void (*risc_context_switch)()) {
  node_info_t* const my_node_info = (node_info_t*)(NODE_INFO_ADDR);
  volatile eth_conn_info_t* const eth_conn_info = (volatile eth_conn_info_t*)(ETH_CONN_INFO_ADDR);

  if (eth_conn_info[my_node_info->my_eth_id] > ETH_UNCONNECTED)
    a164:	00001737          	lui	a4, 0x1
    a168:	10e74783          	lbu	a5, 270(a4) # 110e <__firmware_stack_size+0xd0e>
    a16c:	20070713          	addi	a4, a4, 512
    a170:	00279793          	slli	a5, a5, 0x2
    a174:	00e787b3          	add	a5, a5, a4
    a178:	0007a703          	lw	a4, 0(a5)
    a17c:	00100793          	li	a5, 1
    a180:	4c040413          	addi	s0, s0, 1216
    a184:	4c048493          	addi	s1, s1, 1216
    a188:	06e7d463          	bge	a5, a4, a1f0 <risc_dram_stream_handler_init_l1(void*, unsigned long volatile&, unsigned long volatile&, unsigned long&, unsigned long&, unsigned long&, unsigned long&, unsigned long&, dram_q_state_t* rvtt_l1_ptr, dram_input_stream_state_t*, dram_output_stream_state_t*, active_stream_info_t* rvtt_l1_ptr, epoch_stream_info_t* rvtt_l1_ptr* rvtt_l1_ptr, active_stream_info_t** rvtt_l1_ptr) [clone .constprop.0]+0x1bc>
/proj_sw/user_dev/jnie/budabackend/src/firmware/riscv/targets/erisc/src/api/eth_init.cpp:798
  {
    epoch_id_to_send = epoch_id;
    eth_send_packet(0, ((uint32_t)(&epoch_id_to_send))>>4, ((uint32_t)(&other_chip_epoch_id))>>4, 1);
    a18c:	c2040993          	addi	s3, s0, -992
    a190:	c3040913          	addi	s2, s0, -976
    a194:	0049d993          	srli	s3, s3, 0x4
    a198:	00495913          	srli	s2, s2, 0x4
/proj_sw/user_dev/jnie/budabackend/src/firmware/riscv/targets/erisc/src/api/eth_init.cpp:797
    epoch_id_to_send = epoch_id;
    a19c:	c3442023          	sw	s4, -992(s0)
/proj_sw/user_dev/jnie/budabackend/src/firmware/riscv/targets/erisc/src/api/eth_init.cpp:798
    eth_send_packet(0, ((uint32_t)(&epoch_id_to_send))>>4, ((uint32_t)(&other_chip_epoch_id))>>4, 1);
    a1a0:	00100613          	li	a2, 1
    a1a4:	00090593          	mv	a1, s2
    a1a8:	00098513          	mv	a0, s3
    a1ac:	ffbf6097          	auipc	ra, 0xffbf6
    a1b0:	240080e7          	jalr	576(ra) # ffc003ec <TENSIX_MAILBOX_BASE+0xffd403ec>
/proj_sw/user_dev/jnie/budabackend/src/firmware/riscv/targets/erisc/src/api/eth_init.cpp:800

    if (has_eth_stream_trans) {
    a1b4:	020a8e63          	beqz	s5, a1f0 <risc_dram_stream_handler_init_l1(void*, unsigned long volatile&, unsigned long volatile&, unsigned long&, unsigned long&, unsigned long&, unsigned long&, unsigned long&, dram_q_state_t* rvtt_l1_ptr, dram_input_stream_state_t*, dram_output_stream_state_t*, active_stream_info_t* rvtt_l1_ptr, epoch_stream_info_t* rvtt_l1_ptr* rvtt_l1_ptr, active_stream_info_t** rvtt_l1_ptr) [clone .constprop.0]+0x1bc>
/proj_sw/user_dev/jnie/budabackend/src/firmware/riscv/targets/erisc/src/api/eth_init.cpp:808
        if (epoch_id > other_chip_epoch_id)
          epoch_id_diff = epoch_id - other_chip_epoch_id;
        else
          epoch_id_diff = 0;

        if (epoch_id_diff < EPOCH_MAX_DIFF)
    a1b8:	00e00a93          	li	s5, 14
/proj_sw/user_dev/jnie/budabackend/src/firmware/riscv/targets/erisc/src/api/eth_init.cpp:803
        if (epoch_id > other_chip_epoch_id)
    a1bc:	c3042783          	lw	a5, -976(s0)
    a1c0:	0347f863          	bgeu	a5, s4, a1f0 <risc_dram_stream_handler_init_l1(void*, unsigned long volatile&, unsigned long volatile&, unsigned long&, unsigned long&, unsigned long&, unsigned long&, unsigned long&, dram_q_state_t* rvtt_l1_ptr, dram_input_stream_state_t*, dram_output_stream_state_t*, active_stream_info_t* rvtt_l1_ptr, epoch_stream_info_t* rvtt_l1_ptr* rvtt_l1_ptr, active_stream_info_t** rvtt_l1_ptr) [clone .constprop.0]+0x1bc>
/proj_sw/user_dev/jnie/budabackend/src/firmware/riscv/targets/erisc/src/api/eth_init.cpp:804
          epoch_id_diff = epoch_id - other_chip_epoch_id;
    a1c4:	c3042783          	lw	a5, -976(s0)
    a1c8:	40fa07b3          	sub	a5, s4, a5
/proj_sw/user_dev/jnie/budabackend/src/firmware/riscv/targets/erisc/src/api/eth_init.cpp:808
        if (epoch_id_diff < EPOCH_MAX_DIFF)
    a1cc:	02faf263          	bgeu	s5, a5, a1f0 <risc_dram_stream_handler_init_l1(void*, unsigned long volatile&, unsigned long volatile&, unsigned long&, unsigned long&, unsigned long&, unsigned long&, unsigned long&, dram_q_state_t* rvtt_l1_ptr, dram_input_stream_state_t*, dram_output_stream_state_t*, active_stream_info_t* rvtt_l1_ptr, epoch_stream_info_t* rvtt_l1_ptr* rvtt_l1_ptr, active_stream_info_t** rvtt_l1_ptr) [clone .constprop.0]+0x1bc>
/proj_sw/user_dev/jnie/budabackend/src/firmware/riscv/targets/erisc/src/api/eth_init.cpp:812
          break;

        epoch_id_to_send = epoch_id;
        eth_send_packet(0, ((uint32_t)(&epoch_id_to_send))>>4, ((uint32_t)(&other_chip_epoch_id))>>4, 1);
    a1d0:	00100613          	li	a2, 1
    a1d4:	00090593          	mv	a1, s2
    a1d8:	00098513          	mv	a0, s3
/proj_sw/user_dev/jnie/budabackend/src/firmware/riscv/targets/erisc/src/api/eth_init.cpp:811
        epoch_id_to_send = epoch_id;
    a1dc:	c3442023          	sw	s4, -992(s0)
/proj_sw/user_dev/jnie/budabackend/src/firmware/riscv/targets/erisc/src/api/eth_init.cpp:812
        eth_send_packet(0, ((uint32_t)(&epoch_id_to_send))>>4, ((uint32_t)(&other_chip_epoch_id))>>4, 1);
    a1e0:	ffbf6097          	auipc	ra, 0xffbf6
    a1e4:	20c080e7          	jalr	524(ra) # ffc003ec <TENSIX_MAILBOX_BASE+0xffd403ec>
/proj_sw/user_dev/jnie/budabackend/src/firmware/riscv/targets/erisc/src/api/eth_init.cpp:814

        risc_context_switch();
    a1e8:	f48ff0ef          	jal	ra, 9930 <risc_context_switch()>
    a1ec:	fd1ff06f          	j	a1bc <risc_dram_stream_handler_init_l1(void*, unsigned long volatile&, unsigned long volatile&, unsigned long&, unsigned long&, unsigned long&, unsigned long&, unsigned long&, dram_q_state_t* rvtt_l1_ptr, dram_input_stream_state_t*, dram_output_stream_state_t*, active_stream_info_t* rvtt_l1_ptr, epoch_stream_info_t* rvtt_l1_ptr* rvtt_l1_ptr, active_stream_info_t** rvtt_l1_ptr) [clone .constprop.0]+0x188>
stream_dram_write_init(unsigned long, unsigned long):
/proj_sw/user_dev/jnie/budabackend/src/firmware/riscv/wormhole/stream_interface.h:443
  NOC_STREAM_WRITE_REG(stream_id, STREAM_CURR_PHASE_REG_INDEX, 0);
    a1f0:	ffb487b7          	lui	a5, 0xffb48
    a1f4:	0207a623          	sw	zero, 44(a5) # ffb4802c <TENSIX_MAILBOX_BASE+0xffc8802c>
/proj_sw/user_dev/jnie/budabackend/src/firmware/riscv/wormhole/stream_interface.h:444
  NOC_STREAM_WRITE_REG(stream_id, STREAM_REMOTE_DEST_MSG_INFO_WR_PTR_HI_REG_INDEX, tile_header_buffer_addr >> 21); // todo remove this when noc0/noc1 NIU_CFG_0_TILE_HEADER_STORE_OFF is set for all dram cores
    a1f8:	38078693          	addi	a3, a5, 896
    a1fc:	00300713          	li	a4, 3
    a200:	04e6a623          	sw	a4, 76(a3)
/proj_sw/user_dev/jnie/budabackend/src/firmware/riscv/wormhole/stream_interface.h:445
  NOC_STREAM_WRITE_REG(stream_id, STREAM_REMOTE_DEST_MSG_INFO_WR_PTR_REG_INDEX, tile_header_buffer_addr >> 4); // todo remove this when noc0/noc1 NIU_CFG_0_TILE_HEADER_STORE_OFF is set for all dram cores
    a204:	00070737          	lui	a4, 0x70
    a208:	80070713          	addi	a4, a4, -2048 # 6f800 <noc_nonblocking_api.cc.88b5909b+0x4ca7c>
    a20c:	02e7a223          	sw	a4, 36(a5)
/proj_sw/user_dev/jnie/budabackend/src/firmware/riscv/wormhole/stream_interface.h:446
  NOC_STREAM_WRITE_REG(stream_id, STREAM_MCAST_DEST_REG_INDEX, 0);
    a210:	0207aa23          	sw	zero, 52(a5)
/proj_sw/user_dev/jnie/budabackend/src/firmware/riscv/wormhole/stream_interface.h:447
  NOC_STREAM_WRITE_REG(stream_id, STREAM_MCAST_DEST_NUM_REG_INDEX, 1);
    a214:	00100713          	li	a4, 1
    a218:	02e7ac23          	sw	a4, 56(a5)
/proj_sw/user_dev/jnie/budabackend/src/firmware/riscv/wormhole/stream_interface.h:448
  NOC_STREAM_WRITE_REG(stream_id, STREAM_SCRATCH_0_REG_INDEX, (1 << 0) | (1 << 2));
    a21c:	00500713          	li	a4, 5
    a220:	06e6a023          	sw	a4, 96(a3)
/proj_sw/user_dev/jnie/budabackend/src/firmware/riscv/wormhole/stream_interface.h:449
  NOC_STREAM_WRITE_REG(stream_id, STREAM_SCRATCH_1_REG_INDEX, 0);
    a224:	3e07a223          	sw	zero, 996(a5)
/proj_sw/user_dev/jnie/budabackend/src/firmware/riscv/wormhole/stream_interface.h:450
  NOC_STREAM_WRITE_REG(stream_id, STREAM_SCRATCH_2_REG_INDEX, 0);
    a228:	3e07a423          	sw	zero, 1000(a5)
/proj_sw/user_dev/jnie/budabackend/src/firmware/riscv/wormhole/stream_interface.h:451
  NOC_STREAM_WRITE_REG(stream_id, STREAM_SCRATCH_3_REG_INDEX, 0);
    a22c:	3e07a623          	sw	zero, 1004(a5)
/proj_sw/user_dev/jnie/budabackend/src/firmware/riscv/wormhole/stream_interface.h:452
  NOC_STREAM_WRITE_REG(stream_id, STREAM_SCRATCH_4_REG_INDEX, 0);
    a230:	3e07a823          	sw	zero, 1008(a5)
/proj_sw/user_dev/jnie/budabackend/src/firmware/riscv/wormhole/stream_interface.h:453
  NOC_STREAM_WRITE_REG(stream_id, STREAM_SCRATCH_5_REG_INDEX, 0);
    a234:	3e07aa23          	sw	zero, 1012(a5)
/proj_sw/user_dev/jnie/budabackend/src/firmware/riscv/wormhole/stream_interface.h:454
  NOC_STREAM_WRITE_REG(stream_id, STREAM_REMOTE_DEST_TRAFFIC_PRIORITY_REG_INDEX, 0);
    a238:	0a07a823          	sw	zero, 176(a5)
/proj_sw/user_dev/jnie/budabackend/src/firmware/riscv/wormhole/stream_interface.h:455
  NOC_STREAM_WRITE_REG(stream_id, STREAM_MEM_BUF_SPACE_AVAILABLE_ACK_THRESHOLD_REG_INDEX, 0);
    a23c:	0a07a023          	sw	zero, 160(a5)
risc_dram_stream_handler_init_l1(void*, unsigned long volatile&, unsigned long volatile&, unsigned long&, unsigned long&, unsigned long&, unsigned long&, unsigned long&, dram_q_state_t* rvtt_l1_ptr, dram_input_stream_state_t*, dram_output_stream_state_t*, active_stream_info_t* rvtt_l1_ptr, epoch_stream_info_t* rvtt_l1_ptr* rvtt_l1_ptr, active_stream_info_t** rvtt_l1_ptr):
/proj_sw/user_dev/jnie/budabackend/src/firmware/riscv/common/dram_stream_intf.cc:1110

  for (uint32_t i = 0;
       i < num_active_streams;
       i++, curr_active_stream_info++) {

    volatile epoch_stream_info_t tt_l1_ptr * l1_stream_info = RISC_EPOCH_INFO_PTR->active_streams[i];
    a240:	000209b7          	lui	s3, 0x20
stream_set_auto_cfg_header(unsigned long, unsigned long):
/proj_sw/user_dev/jnie/budabackend/src/firmware/riscv/wormhole/stream_interface.h:58
  NOC_STREAM_WRITE_REG(stream_id, STREAM_PHASE_AUTO_CFG_HEADER_REG_INDEX, val);
    a244:	00100937          	lui	s2, 0x100
stream_phase_blob_run(unsigned long, unsigned long, unsigned long):
/proj_sw/user_dev/jnie/budabackend/src/firmware/riscv/wormhole/stream_interface.h:30
  NOC_STREAM_WRITE_REG(stream_id, STREAM_MISC_CFG_REG_INDEX, (0x1 << PHASE_AUTO_CONFIG) | (1 << NEXT_PHASE_SRC_CHANGE) | (1 << NEXT_PHASE_DEST_CHANGE));
    a248:	00003a37          	lui	s4, 0x3
risc_dram_stream_handler_init_l1(void*, unsigned long volatile&, unsigned long volatile&, unsigned long&, unsigned long&, unsigned long&, unsigned long&, unsigned long&, dram_q_state_t* rvtt_l1_ptr, dram_input_stream_state_t*, dram_output_stream_state_t*, active_stream_info_t* rvtt_l1_ptr, epoch_stream_info_t* rvtt_l1_ptr* rvtt_l1_ptr, active_stream_info_t** rvtt_l1_ptr):
/proj_sw/user_dev/jnie/budabackend/src/firmware/riscv/common/dram_stream_intf.cc:1129
    } else {
      stream_set_auto_cfg_header(stream_id, 0); // Reset this back to zero since thats default value for successfully finished streams
    }

    uint32_t operand = stream_id_to_operand(stream_id);
    if ((flags & STREAM_MOVES_RAW_DATA) != 0 || ((flags & STREAM_DRAM_NO_PUSH) != 0)) {
    a24c:	00001ab7          	lui	s5, 0x1
stream_dram_write_init(unsigned long, unsigned long):
/proj_sw/user_dev/jnie/budabackend/src/firmware/riscv/wormhole/stream_interface.h:456
  NOC_STREAM_WRITE_REG(stream_id, STREAM_GATHER_REG_INDEX, 0);
    a250:	0207ae23          	sw	zero, 60(a5)
risc_dram_stream_handler_init_l1(void*, unsigned long volatile&, unsigned long volatile&, unsigned long&, unsigned long&, unsigned long&, unsigned long&, unsigned long&, dram_q_state_t* rvtt_l1_ptr, dram_input_stream_state_t*, dram_output_stream_state_t*, active_stream_info_t* rvtt_l1_ptr, epoch_stream_info_t* rvtt_l1_ptr* rvtt_l1_ptr, active_stream_info_t** rvtt_l1_ptr):
/proj_sw/user_dev/jnie/budabackend/src/firmware/riscv/common/dram_stream_intf.cc:1106
  for (uint32_t i = 0;
    a254:	00000b93          	li	s7, 0
/proj_sw/user_dev/jnie/budabackend/src/firmware/riscv/common/dram_stream_intf.cc:1110
    volatile epoch_stream_info_t tt_l1_ptr * l1_stream_info = RISC_EPOCH_INFO_PTR->active_streams[i];
    a258:	08098993          	addi	s3, s3, 128 # 20080 <risc_chip_specific.cc.5b7d4a1c+0x10a4>
stream_set_auto_cfg_header(unsigned long, unsigned long):
/proj_sw/user_dev/jnie/budabackend/src/firmware/riscv/wormhole/stream_interface.h:58
  NOC_STREAM_WRITE_REG(stream_id, STREAM_PHASE_AUTO_CFG_HEADER_REG_INDEX, val);
    a25c:	b4090913          	addi	s2, s2, -1216 # ffb40 <noc_nonblocking_api.cc.88b5909b+0xdcdbc>
stream_phase_blob_run(unsigned long, unsigned long, unsigned long):
/proj_sw/user_dev/jnie/budabackend/src/firmware/riscv/wormhole/stream_interface.h:30
  NOC_STREAM_WRITE_REG(stream_id, STREAM_MISC_CFG_REG_INDEX, (0x1 << PHASE_AUTO_CONFIG) | (1 << NEXT_PHASE_SRC_CHANGE) | (1 << NEXT_PHASE_DEST_CHANGE));
    a260:	200a0a13          	addi	s4, s4, 512 # 3200 <__firmware_start+0x1200>
risc_dram_stream_handler_init_l1(void*, unsigned long volatile&, unsigned long volatile&, unsigned long&, unsigned long&, unsigned long&, unsigned long&, unsigned long&, dram_q_state_t* rvtt_l1_ptr, dram_input_stream_state_t*, dram_output_stream_state_t*, active_stream_info_t* rvtt_l1_ptr, epoch_stream_info_t* rvtt_l1_ptr* rvtt_l1_ptr, active_stream_info_t** rvtt_l1_ptr):
/proj_sw/user_dev/jnie/budabackend/src/firmware/riscv/common/dram_stream_intf.cc:1129
    if ((flags & STREAM_MOVES_RAW_DATA) != 0 || ((flags & STREAM_DRAM_NO_PUSH) != 0)) {
    a264:	840a8a93          	addi	s5, s5, -1984 # 840 <__firmware_stack_size+0x440>
/proj_sw/user_dev/jnie/budabackend/src/firmware/riscv/common/dram_stream_intf.cc:1107
       i < num_active_streams;
    a268:	1804a783          	lw	a5, 384(s1)
    a26c:	0afbfe63          	bgeu	s7, a5, a328 <risc_dram_stream_handler_init_l1(void*, unsigned long volatile&, unsigned long volatile&, unsigned long&, unsigned long&, unsigned long&, unsigned long&, unsigned long&, dram_q_state_t* rvtt_l1_ptr, dram_input_stream_state_t*, dram_output_stream_state_t*, active_stream_info_t* rvtt_l1_ptr, epoch_stream_info_t* rvtt_l1_ptr* rvtt_l1_ptr, active_stream_info_t** rvtt_l1_ptr) [clone .constprop.0]+0x2f4>
/proj_sw/user_dev/jnie/budabackend/src/firmware/riscv/common/dram_stream_intf.cc:1110
    volatile epoch_stream_info_t tt_l1_ptr * l1_stream_info = RISC_EPOCH_INFO_PTR->active_streams[i];
    a270:	044b8793          	addi	a5, s7, 68
    a274:	00279793          	slli	a5, a5, 0x2
    a278:	00f987b3          	add	a5, s3, a5
    a27c:	0047a783          	lw	a5, 4(a5)
/proj_sw/user_dev/jnie/budabackend/src/firmware/riscv/common/dram_stream_intf.cc:1111
    uint32_t stream_id = l1_stream_info->stream_id;
    a280:	0007d503          	lhu	a0, 0(a5)
/proj_sw/user_dev/jnie/budabackend/src/firmware/riscv/common/dram_stream_intf.cc:1112
    uint32_t blob_start_addr = l1_stream_info->blob_start_addr;
    a284:	0247a603          	lw	a2, 36(a5)
/proj_sw/user_dev/jnie/budabackend/src/firmware/riscv/common/dram_stream_intf.cc:1113
    uint32_t start_phase_num_cfg_regs = l1_stream_info->start_phase_num_cfg_regs;
    a288:	01e7c703          	lbu	a4, 30(a5)
/proj_sw/user_dev/jnie/budabackend/src/firmware/riscv/common/dram_stream_intf.cc:1114
    uint32_t flags = l1_stream_info->flags;
    a28c:	03c7ab03          	lw	s6, 60(a5)
/proj_sw/user_dev/jnie/budabackend/src/firmware/riscv/common/dram_stream_intf.cc:1119
    if ((flags & STREAM_BRISC_PACK) == 0 && !is_dram_prefetch_streaming) {
    a290:	400b7793          	andi	a5, s6, 1024
    a294:	08079263          	bnez	a5, a318 <risc_dram_stream_handler_init_l1(void*, unsigned long volatile&, unsigned long volatile&, unsigned long&, unsigned long&, unsigned long&, unsigned long&, unsigned long&, dram_q_state_t* rvtt_l1_ptr, dram_input_stream_state_t*, dram_output_stream_state_t*, active_stream_info_t* rvtt_l1_ptr, epoch_stream_info_t* rvtt_l1_ptr* rvtt_l1_ptr, active_stream_info_t** rvtt_l1_ptr) [clone .constprop.0]+0x2e4>
/proj_sw/user_dev/jnie/budabackend/src/firmware/riscv/common/dram_stream_intf.cc:1117
                                      ((flags & STREAM_INTERMEDIATE) == 0) && ((flags & STREAM_MOVES_RAW_DATA) == 0);
    a298:	076b7693          	andi	a3, s6, 118
/proj_sw/user_dev/jnie/budabackend/src/firmware/riscv/common/dram_stream_intf.cc:1119
    if ((flags & STREAM_BRISC_PACK) == 0 && !is_dram_prefetch_streaming) {
    a29c:	00400793          	li	a5, 4
    a2a0:	06f68c63          	beq	a3, a5, a318 <risc_dram_stream_handler_init_l1(void*, unsigned long volatile&, unsigned long volatile&, unsigned long&, unsigned long&, unsigned long&, unsigned long&, unsigned long&, dram_q_state_t* rvtt_l1_ptr, dram_input_stream_state_t*, dram_output_stream_state_t*, active_stream_info_t* rvtt_l1_ptr, epoch_stream_info_t* rvtt_l1_ptr* rvtt_l1_ptr, active_stream_info_t** rvtt_l1_ptr) [clone .constprop.0]+0x2e4>
/proj_sw/user_dev/jnie/budabackend/src/firmware/riscv/common/dram_stream_intf.cc:1121
      RISC_POST_STATUS(0xA1000000 | stream_id);
    a2a4:	a10006b7          	lui	a3, 0xa1000
stream_phase_blob_run(unsigned long, unsigned long, unsigned long):
/proj_sw/user_dev/jnie/budabackend/src/firmware/riscv/wormhole/stream_interface.h:26
  NOC_STREAM_WRITE_REG(stream_id, STREAM_RECEIVER_ENDPOINT_MULTI_TILE_CLEAR_REG_INDEX, 0); // Prevent accidental clearing
    a2a8:	012507b3          	add	a5, a0, s2
risc_dram_stream_handler_init_l1(void*, unsigned long volatile&, unsigned long volatile&, unsigned long&, unsigned long&, unsigned long&, unsigned long&, unsigned long&, dram_q_state_t* rvtt_l1_ptr, dram_input_stream_state_t*, dram_output_stream_state_t*, active_stream_info_t* rvtt_l1_ptr, epoch_stream_info_t* rvtt_l1_ptr* rvtt_l1_ptr, active_stream_info_t** rvtt_l1_ptr):
/proj_sw/user_dev/jnie/budabackend/src/firmware/riscv/common/dram_stream_intf.cc:1121
    a2ac:	00d566b3          	or	a3, a0, a3
RISC_POST_STATUS(unsigned long):
/proj_sw/user_dev/jnie/budabackend/src/firmware/riscv/targets/erisc/src/risc.h:26
    a2b0:	ffb205b7          	lui	a1, 0xffb20
stream_phase_blob_run(unsigned long, unsigned long, unsigned long):
/proj_sw/user_dev/jnie/budabackend/src/firmware/riscv/wormhole/stream_interface.h:26
    a2b4:	00c79793          	slli	a5, a5, 0xc
RISC_POST_STATUS(unsigned long):
/proj_sw/user_dev/jnie/budabackend/src/firmware/riscv/targets/erisc/src/risc.h:26
    a2b8:	10d5a623          	sw	a3, 268(a1) # ffb2010c <TENSIX_MAILBOX_BASE+0xffc6010c>
stream_phase_blob_run(unsigned long, unsigned long, unsigned long):
/proj_sw/user_dev/jnie/budabackend/src/firmware/riscv/wormhole/stream_interface.h:26
    a2bc:	0207a223          	sw	zero, 36(a5)
/proj_sw/user_dev/jnie/budabackend/src/firmware/riscv/wormhole/stream_interface.h:28
  NOC_STREAM_WRITE_REG(stream_id, STREAM_PHASE_AUTO_CFG_PTR_REG_INDEX, blob_start_addr);
    a2c0:	02c7a823          	sw	a2, 48(a5)
/proj_sw/user_dev/jnie/budabackend/src/firmware/riscv/wormhole/stream_interface.h:29
  NOC_STREAM_WRITE_REG(stream_id, STREAM_PHASE_AUTO_CFG_HEADER_REG_INDEX, start_phase_num_cfg_regs << NEXT_PHASE_NUM_CFG_REG_WRITES);
    a2c4:	01871713          	slli	a4, a4, 0x18
    a2c8:	08e7a823          	sw	a4, 144(a5)
/proj_sw/user_dev/jnie/budabackend/src/firmware/riscv/wormhole/stream_interface.h:30
  NOC_STREAM_WRITE_REG(stream_id, STREAM_MISC_CFG_REG_INDEX, (0x1 << PHASE_AUTO_CONFIG) | (1 << NEXT_PHASE_SRC_CHANGE) | (1 << NEXT_PHASE_DEST_CHANGE));
    a2cc:	0347a423          	sw	s4, 40(a5)
risc_dram_stream_handler_init_l1(void*, unsigned long volatile&, unsigned long volatile&, unsigned long&, unsigned long&, unsigned long&, unsigned long&, unsigned long&, dram_q_state_t* rvtt_l1_ptr, dram_input_stream_state_t*, dram_output_stream_state_t*, active_stream_info_t* rvtt_l1_ptr, epoch_stream_info_t* rvtt_l1_ptr* rvtt_l1_ptr, active_stream_info_t** rvtt_l1_ptr):
/proj_sw/user_dev/jnie/budabackend/src/firmware/riscv/common/dram_stream_intf.cc:1128
    uint32_t operand = stream_id_to_operand(stream_id);
    a2d0:	ffbf6097          	auipc	ra, 0xffbf6
    a2d4:	db4080e7          	jalr	-588(ra) # ffc00084 <TENSIX_MAILBOX_BASE+0xffd40084>
/proj_sw/user_dev/jnie/budabackend/src/firmware/riscv/common/dram_stream_intf.cc:1129
    if ((flags & STREAM_MOVES_RAW_DATA) != 0 || ((flags & STREAM_DRAM_NO_PUSH) != 0)) {
    a2d8:	015b77b3          	and	a5, s6, s5
/proj_sw/user_dev/jnie/budabackend/src/firmware/riscv/common/dram_stream_intf.cc:1128
    uint32_t operand = stream_id_to_operand(stream_id);
    a2dc:	00050c13          	mv	s8, a0
/proj_sw/user_dev/jnie/budabackend/src/firmware/riscv/common/dram_stream_intf.cc:1129
    if ((flags & STREAM_MOVES_RAW_DATA) != 0 || ((flags & STREAM_DRAM_NO_PUSH) != 0)) {
    a2e0:	02078863          	beqz	a5, a310 <risc_dram_stream_handler_init_l1(void*, unsigned long volatile&, unsigned long volatile&, unsigned long&, unsigned long&, unsigned long&, unsigned long&, unsigned long&, dram_q_state_t* rvtt_l1_ptr, dram_input_stream_state_t*, dram_output_stream_state_t*, active_stream_info_t* rvtt_l1_ptr, epoch_stream_info_t* rvtt_l1_ptr* rvtt_l1_ptr, active_stream_info_t** rvtt_l1_ptr) [clone .constprop.0]+0x2dc>
get_operand_tiles_received_ptr(int):
/proj_sw/user_dev/jnie/budabackend/src/firmware/riscv/wormhole/stream_io_map.h:147
    a2e4:	ffbf6097          	auipc	ra, 0xffbf6
    a2e8:	d64080e7          	jalr	-668(ra) # ffc00048 <TENSIX_MAILBOX_BASE+0xffd40048>
    a2ec:	01250b33          	add	s6, a0, s2
get_operand_tiles_acked_ptr(int):
/proj_sw/user_dev/jnie/budabackend/src/firmware/riscv/wormhole/stream_io_map.h:159
  return (volatile uint32_t tt_reg_ptr *)(uintptr_t)(STREAM_REG_ADDR(get_operand_stream_id(operand), STREAM_REMOTE_DEST_BUF_START_REG_INDEX));
    a2f0:	000c0513          	mv	a0, s8
    a2f4:	ffbf6097          	auipc	ra, 0xffbf6
    a2f8:	d54080e7          	jalr	-684(ra) # ffc00048 <TENSIX_MAILBOX_BASE+0xffd40048>
get_operand_tiles_received_ptr(int):
/proj_sw/user_dev/jnie/budabackend/src/firmware/riscv/wormhole/stream_io_map.h:147
  return (volatile uint32_t tt_reg_ptr *)(uintptr_t)(STREAM_REG_ADDR(get_operand_stream_id(operand), STREAM_REMOTE_DEST_BUF_SIZE_REG_INDEX));
    a2fc:	00cb1b13          	slli	s6, s6, 0xc
get_operand_tiles_acked_ptr(int):
/proj_sw/user_dev/jnie/budabackend/src/firmware/riscv/wormhole/stream_io_map.h:159
  return (volatile uint32_t tt_reg_ptr *)(uintptr_t)(STREAM_REG_ADDR(get_operand_stream_id(operand), STREAM_REMOTE_DEST_BUF_START_REG_INDEX));
    a300:	01250533          	add	a0, a0, s2
    a304:	00c51513          	slli	a0, a0, 0xc
risc_dram_stream_handler_init_l1(void*, unsigned long volatile&, unsigned long volatile&, unsigned long&, unsigned long&, unsigned long&, unsigned long&, unsigned long&, dram_q_state_t* rvtt_l1_ptr, dram_input_stream_state_t*, dram_output_stream_state_t*, active_stream_info_t* rvtt_l1_ptr, epoch_stream_info_t* rvtt_l1_ptr* rvtt_l1_ptr, active_stream_info_t** rvtt_l1_ptr):
/proj_sw/user_dev/jnie/budabackend/src/firmware/riscv/common/dram_stream_intf.cc:1132
      volatile uint32_t tt_reg_ptr * tiles_received_ptr = get_operand_tiles_received_ptr(operand);
      volatile uint32_t tt_reg_ptr * tiles_acked_ptr = get_operand_tiles_acked_ptr(operand);
      tiles_received_ptr[0] = 0;
    a308:	000b2823          	sw	zero, 16(s6)
/proj_sw/user_dev/jnie/budabackend/src/firmware/riscv/common/dram_stream_intf.cc:1133
      tiles_acked_ptr[0] = 0;
    a30c:	00052623          	sw	zero, 12(a0)
/proj_sw/user_dev/jnie/budabackend/src/firmware/riscv/common/dram_stream_intf.cc:1106
  for (uint32_t i = 0;
    a310:	001b8b93          	addi	s7, s7, 1
    a314:	f55ff06f          	j	a268 <risc_dram_stream_handler_init_l1(void*, unsigned long volatile&, unsigned long volatile&, unsigned long&, unsigned long&, unsigned long&, unsigned long&, unsigned long&, dram_q_state_t* rvtt_l1_ptr, dram_input_stream_state_t*, dram_output_stream_state_t*, active_stream_info_t* rvtt_l1_ptr, epoch_stream_info_t* rvtt_l1_ptr* rvtt_l1_ptr, active_stream_info_t** rvtt_l1_ptr) [clone .constprop.0]+0x234>
stream_set_auto_cfg_header(unsigned long, unsigned long):
/proj_sw/user_dev/jnie/budabackend/src/firmware/riscv/wormhole/stream_interface.h:58
  NOC_STREAM_WRITE_REG(stream_id, STREAM_PHASE_AUTO_CFG_HEADER_REG_INDEX, val);
    a318:	01250733          	add	a4, a0, s2
    a31c:	00c71713          	slli	a4, a4, 0xc
    a320:	08072823          	sw	zero, 144(a4)
    a324:	fadff06f          	j	a2d0 <risc_dram_stream_handler_init_l1(void*, unsigned long volatile&, unsigned long volatile&, unsigned long&, unsigned long&, unsigned long&, unsigned long&, unsigned long&, dram_q_state_t* rvtt_l1_ptr, dram_input_stream_state_t*, dram_output_stream_state_t*, active_stream_info_t* rvtt_l1_ptr, epoch_stream_info_t* rvtt_l1_ptr* rvtt_l1_ptr, active_stream_info_t** rvtt_l1_ptr) [clone .constprop.0]+0x29c>
risc_initialize_tile_counters(unsigned long, unsigned long):
/proj_sw/user_dev/jnie/budabackend/src/firmware/riscv/targets/erisc/src/erisc.cc:211
    sender_tiles_received[i] = 0;
    a328:	08000613          	li	a2, 128
    a32c:	00000593          	li	a1, 0
    a330:	c4040513          	addi	a0, s0, -960
    a334:	ffbf7097          	auipc	ra, 0xffbf7
    a338:	248080e7          	jalr	584(ra) # ffc0157c <TENSIX_MAILBOX_BASE+0xffd4157c>
/proj_sw/user_dev/jnie/budabackend/src/firmware/riscv/targets/erisc/src/erisc.cc:212
    sender_tiles_acked[i] = 0;
    a33c:	08000613          	li	a2, 128
    a340:	00000593          	li	a1, 0
    a344:	cc040513          	addi	a0, s0, -832
    a348:	ffbf7097          	auipc	ra, 0xffbf7
    a34c:	234080e7          	jalr	564(ra) # ffc0157c <TENSIX_MAILBOX_BASE+0xffd4157c>
/proj_sw/user_dev/jnie/budabackend/src/firmware/riscv/targets/erisc/src/erisc.cc:213
    receiver_tiles_received[i] = 0;
    a350:	08000613          	li	a2, 128
    a354:	00000593          	li	a1, 0
    a358:	d4040513          	addi	a0, s0, -704
    a35c:	ffbf7097          	auipc	ra, 0xffbf7
    a360:	220080e7          	jalr	544(ra) # ffc0157c <TENSIX_MAILBOX_BASE+0xffd4157c>
/proj_sw/user_dev/jnie/budabackend/src/firmware/riscv/targets/erisc/src/erisc.cc:214
    receiver_tiles_acked[i] = 0;
    a364:	08000613          	li	a2, 128
    a368:	00000593          	li	a1, 0
    a36c:	dc040513          	addi	a0, s0, -576
    a370:	ffbf7097          	auipc	ra, 0xffbf7
    a374:	20c080e7          	jalr	524(ra) # ffc0157c <TENSIX_MAILBOX_BASE+0xffd4157c>
    a378:	0000f7b7          	lui	a5, 0xf
    a37c:	64478793          	addi	a5, a5, 1604 # f644 <dram_q_state>
    a380:	00f12823          	sw	a5, 16(sp)
stream_phase_is_active(unsigned long):
/proj_sw/user_dev/jnie/budabackend/src/firmware/riscv/wormhole/stream_interface.h:62
  return NOC_STREAM_READ_REG_FIELD(stream_id, STREAM_WAIT_STATUS_REG_INDEX, MSG_FWD_ONGOING);
    a384:	001007b7          	lui	a5, 0x100
    a388:	b4078c93          	addi	s9, a5, -1216 # ffb40 <noc_nonblocking_api.cc.88b5909b+0xdcdbc>
stream_push_tiles(unsigned long, unsigned long, unsigned long):
/proj_sw/user_dev/jnie/budabackend/src/firmware/riscv/wormhole/stream_interface.h:281
  uint32_t tiles_left_in_phase = rmw & 0xffff;
    a38c:	000107b7          	lui	a5, 0x10
    a390:	fff78793          	addi	a5, a5, -1 # ffff <dram_input_stream_state+0x177>
risc_dram_stream_handler_init_l1(void*, unsigned long volatile&, unsigned long volatile&, unsigned long&, unsigned long&, unsigned long&, unsigned long&, unsigned long&, dram_q_state_t* rvtt_l1_ptr, dram_input_stream_state_t*, dram_output_stream_state_t*, active_stream_info_t* rvtt_l1_ptr, epoch_stream_info_t* rvtt_l1_ptr* rvtt_l1_ptr, active_stream_info_t** rvtt_l1_ptr):
/proj_sw/user_dev/jnie/budabackend/src/firmware/riscv/common/dram_stream_intf.cc:1277
        // We dont do this for writes as the stream may not be started by ncrisc but packer instead
        //while (!stream_phase_is_active(stream_id));

        RISC_POST_STATUS(0xA6000000 | stream_id);

        volatile epoch_stream_info_t tt_l1_ptr * l1_stream_info = RISC_EPOCH_INFO_PTR->active_streams[i];
    a394:	00020ab7          	lui	s5, 0x20
/proj_sw/user_dev/jnie/budabackend/src/firmware/riscv/common/dram_stream_intf.cc:1147
  for (uint32_t i = 0;
    a398:	00000b13          	li	s6, 0
/proj_sw/user_dev/jnie/budabackend/src/firmware/riscv/common/dram_stream_intf.cc:1143
  dram_q_state_t tt_l1_ptr * curr_dram_q_state = dram_q_state;
    a39c:	18448a13          	addi	s4, s1, 388
/proj_sw/user_dev/jnie/budabackend/src/firmware/riscv/common/dram_stream_intf.cc:1142
  dram_output_stream_state_t* curr_dram_output_stream_state_init = dram_output_stream_state;
    a3a0:	72848913          	addi	s2, s1, 1832
/proj_sw/user_dev/jnie/budabackend/src/firmware/riscv/common/dram_stream_intf.cc:1141
  dram_input_stream_state_t* curr_dram_input_stream_state_init = dram_input_stream_state;
    a3a4:	9c840993          	addi	s3, s0, -1592
/proj_sw/user_dev/jnie/budabackend/src/firmware/riscv/common/dram_stream_intf.cc:1146
  curr_active_stream_info = active_stream_info;
    a3a8:	00048c13          	mv	s8, s1
stream_push_tiles(unsigned long, unsigned long, unsigned long):
/proj_sw/user_dev/jnie/budabackend/src/firmware/riscv/wormhole/stream_interface.h:281
    a3ac:	02f12623          	sw	a5, 44(sp)
risc_dram_stream_handler_init_l1(void*, unsigned long volatile&, unsigned long volatile&, unsigned long&, unsigned long&, unsigned long&, unsigned long&, unsigned long&, dram_q_state_t* rvtt_l1_ptr, dram_input_stream_state_t*, dram_output_stream_state_t*, active_stream_info_t* rvtt_l1_ptr, epoch_stream_info_t* rvtt_l1_ptr* rvtt_l1_ptr, active_stream_info_t** rvtt_l1_ptr):
/proj_sw/user_dev/jnie/budabackend/src/firmware/riscv/common/dram_stream_intf.cc:1277
        volatile epoch_stream_info_t tt_l1_ptr * l1_stream_info = RISC_EPOCH_INFO_PTR->active_streams[i];
    a3b0:	080a8a93          	addi	s5, s5, 128 # 20080 <risc_chip_specific.cc.5b7d4a1c+0x10a4>
/proj_sw/user_dev/jnie/budabackend/src/firmware/riscv/common/dram_stream_intf.cc:1148
       i < num_active_streams;
    a3b4:	1804a503          	lw	a0, 384(s1)
    a3b8:	4eab7c63          	bgeu	s6, a0, a8b0 <risc_dram_stream_handler_init_l1(void*, unsigned long volatile&, unsigned long volatile&, unsigned long&, unsigned long&, unsigned long&, unsigned long&, unsigned long&, dram_q_state_t* rvtt_l1_ptr, dram_input_stream_state_t*, dram_output_stream_state_t*, active_stream_info_t* rvtt_l1_ptr, epoch_stream_info_t* rvtt_l1_ptr* rvtt_l1_ptr, active_stream_info_t** rvtt_l1_ptr) [clone .constprop.0]+0x87c>
/proj_sw/user_dev/jnie/budabackend/src/firmware/riscv/common/dram_stream_intf.cc:1152
    uint32_t stream_id = curr_active_stream_info->stream_id;
    a3bc:	000c4503          	lbu	a0, 0(s8)
/proj_sw/user_dev/jnie/budabackend/src/firmware/riscv/common/dram_stream_intf.cc:1153
    uint32_t flags = curr_active_stream_info->flags;
    a3c0:	006c5783          	lhu	a5, 6(s8)
/proj_sw/user_dev/jnie/budabackend/src/firmware/riscv/common/dram_stream_intf.cc:1155
    RISC_POST_STATUS(0xA3000000 | stream_id);
    a3c4:	a3000737          	lui	a4, 0xa3000
RISC_POST_STATUS(unsigned long):
/proj_sw/user_dev/jnie/budabackend/src/firmware/riscv/targets/erisc/src/risc.h:26
    a3c8:	ffb206b7          	lui	a3, 0xffb20
risc_dram_stream_handler_init_l1(void*, unsigned long volatile&, unsigned long volatile&, unsigned long&, unsigned long&, unsigned long&, unsigned long&, unsigned long&, dram_q_state_t* rvtt_l1_ptr, dram_input_stream_state_t*, dram_output_stream_state_t*, active_stream_info_t* rvtt_l1_ptr, epoch_stream_info_t* rvtt_l1_ptr* rvtt_l1_ptr, active_stream_info_t** rvtt_l1_ptr):
/proj_sw/user_dev/jnie/budabackend/src/firmware/riscv/common/dram_stream_intf.cc:1155
    a3cc:	00e56733          	or	a4, a0, a4
RISC_POST_STATUS(unsigned long):
/proj_sw/user_dev/jnie/budabackend/src/firmware/riscv/targets/erisc/src/risc.h:26
    a3d0:	10e6a623          	sw	a4, 268(a3) # ffb2010c <TENSIX_MAILBOX_BASE+0xffc6010c>
risc_dram_stream_handler_init_l1(void*, unsigned long volatile&, unsigned long volatile&, unsigned long&, unsigned long&, unsigned long&, unsigned long&, unsigned long&, dram_q_state_t* rvtt_l1_ptr, dram_input_stream_state_t*, dram_output_stream_state_t*, active_stream_info_t* rvtt_l1_ptr, epoch_stream_info_t* rvtt_l1_ptr* rvtt_l1_ptr, active_stream_info_t** rvtt_l1_ptr):
/proj_sw/user_dev/jnie/budabackend/src/firmware/riscv/common/dram_stream_intf.cc:1158
    if ((flags & STREAM_DRAM_INPUT) != 0) {
    a3d4:	0047f713          	andi	a4, a5, 4
    a3d8:	22070263          	beqz	a4, a5fc <risc_dram_stream_handler_init_l1(void*, unsigned long volatile&, unsigned long volatile&, unsigned long&, unsigned long&, unsigned long&, unsigned long&, unsigned long&, dram_q_state_t* rvtt_l1_ptr, dram_input_stream_state_t*, dram_output_stream_state_t*, active_stream_info_t* rvtt_l1_ptr, epoch_stream_info_t* rvtt_l1_ptr* rvtt_l1_ptr, active_stream_info_t** rvtt_l1_ptr) [clone .constprop.0]+0x5c8>
/proj_sw/user_dev/jnie/budabackend/src/firmware/riscv/common/dram_stream_intf.cc:1160
      if ((flags & STREAM_DRAM_IO) != 0 || (flags & STREAM_DRAM_STREAMING) != 0) {
    a3dc:	0227f713          	andi	a4, a5, 34
    a3e0:	20070863          	beqz	a4, a5f0 <risc_dram_stream_handler_init_l1(void*, unsigned long volatile&, unsigned long volatile&, unsigned long&, unsigned long&, unsigned long&, unsigned long&, unsigned long&, dram_q_state_t* rvtt_l1_ptr, dram_input_stream_state_t*, dram_output_stream_state_t*, active_stream_info_t* rvtt_l1_ptr, epoch_stream_info_t* rvtt_l1_ptr* rvtt_l1_ptr, active_stream_info_t** rvtt_l1_ptr) [clone .constprop.0]+0x5bc>
/proj_sw/user_dev/jnie/budabackend/src/firmware/riscv/common/dram_stream_intf.cc:1162
        RISC_POST_STATUS(0xA4000000 | stream_id);
    a3e4:	a4000737          	lui	a4, 0xa4000
    a3e8:	00e56733          	or	a4, a0, a4
RISC_POST_STATUS(unsigned long):
/proj_sw/user_dev/jnie/budabackend/src/firmware/riscv/targets/erisc/src/risc.h:26
    a3ec:	10e6a623          	sw	a4, 268(a3)
stream_phase_is_active(unsigned long):
/proj_sw/user_dev/jnie/budabackend/src/firmware/riscv/wormhole/stream_interface.h:62
  return NOC_STREAM_READ_REG_FIELD(stream_id, STREAM_WAIT_STATUS_REG_INDEX, MSG_FWD_ONGOING);
    a3f0:	01950733          	add	a4, a0, s9
    a3f4:	00c71713          	slli	a4, a4, 0xc
    a3f8:	08c70613          	addi	a2, a4, 140 # a400008c <TENSIX_MAILBOX_BASE+0xa414008c>
    a3fc:	00062683          	lw	a3, 0(a2)
risc_dram_stream_handler_init_l1(void*, unsigned long volatile&, unsigned long volatile&, unsigned long&, unsigned long&, unsigned long&, unsigned long&, unsigned long&, dram_q_state_t* rvtt_l1_ptr, dram_input_stream_state_t*, dram_output_stream_state_t*, active_stream_info_t* rvtt_l1_ptr, epoch_stream_info_t* rvtt_l1_ptr* rvtt_l1_ptr, active_stream_info_t** rvtt_l1_ptr):
/proj_sw/user_dev/jnie/budabackend/src/firmware/riscv/common/dram_stream_intf.cc:1165
        while (!stream_phase_is_active(stream_id)); 
    a400:	0046f693          	andi	a3, a3, 4
    a404:	fe068ce3          	beqz	a3, a3fc <risc_dram_stream_handler_init_l1(void*, unsigned long volatile&, unsigned long volatile&, unsigned long&, unsigned long&, unsigned long&, unsigned long&, unsigned long&, dram_q_state_t* rvtt_l1_ptr, dram_input_stream_state_t*, dram_output_stream_state_t*, active_stream_info_t* rvtt_l1_ptr, epoch_stream_info_t* rvtt_l1_ptr* rvtt_l1_ptr, active_stream_info_t** rvtt_l1_ptr) [clone .constprop.0]+0x3c8>
/proj_sw/user_dev/jnie/budabackend/src/firmware/riscv/common/dram_stream_intf.cc:1167
        volatile epoch_stream_info_t tt_l1_ptr * l1_stream_info = RISC_EPOCH_INFO_PTR->active_streams[i];
    a408:	044b0693          	addi	a3, s6, 68
    a40c:	00269693          	slli	a3, a3, 0x2
    a410:	00da86b3          	add	a3, s5, a3
    a414:	0046a683          	lw	a3, 4(a3)
    a418:	03898813          	addi	a6, s3, 56
/proj_sw/user_dev/jnie/budabackend/src/firmware/riscv/common/dram_stream_intf.cc:1170
        for (uint32_t k = 0; k < EPOCH_MAX_OUTPUT_FORKS; k++) {
    a41c:	00000593          	li	a1, 0
    a420:	01000893          	li	a7, 16
/proj_sw/user_dev/jnie/budabackend/src/firmware/riscv/common/dram_stream_intf.cc:1169
        uint32_t num_fork_streams = l1_stream_info->num_fork_streams;
    a424:	08c6d303          	lhu	t1, 140(a3)
/proj_sw/user_dev/jnie/budabackend/src/firmware/riscv/common/dram_stream_intf.cc:1171
          fork_stream_ids_ptr[k] = RISC_EPOCH_INFO_PTR->active_streams[l1_stream_info->fork_idxs[k]]->stream_id;
    a428:	00b68633          	add	a2, a3, a1
    a42c:	09064603          	lbu	a2, 144(a2)
    a430:	04460613          	addi	a2, a2, 68
    a434:	00261613          	slli	a2, a2, 0x2
    a438:	00ca8633          	add	a2, s5, a2
    a43c:	00462603          	lw	a2, 4(a2)
    a440:	00065603          	lhu	a2, 0(a2)
    a444:	00c80023          	sb	a2, 0(a6)
/proj_sw/user_dev/jnie/budabackend/src/firmware/riscv/common/dram_stream_intf.cc:1172
          if (k == num_fork_streams) {
    a448:	04b31863          	bne	t1, a1, a498 <risc_dram_stream_handler_init_l1(void*, unsigned long volatile&, unsigned long volatile&, unsigned long&, unsigned long&, unsigned long&, unsigned long&, unsigned long&, dram_q_state_t* rvtt_l1_ptr, dram_input_stream_state_t*, dram_output_stream_state_t*, active_stream_info_t* rvtt_l1_ptr, epoch_stream_info_t* rvtt_l1_ptr* rvtt_l1_ptr, active_stream_info_t** rvtt_l1_ptr) [clone .constprop.0]+0x464>
/proj_sw/user_dev/jnie/budabackend/src/firmware/riscv/common/dram_stream_intf.cc:1173
            fork_stream_ids_ptr[k] = NULL_STREAM;
    a44c:	fff00613          	li	a2, -1
    a450:	00c80023          	sb	a2, 0(a6)
/proj_sw/user_dev/jnie/budabackend/src/firmware/riscv/common/dram_stream_intf.cc:1178
        epoch_stream_dram_io_info_t tt_l1_ptr * l1_dram_io_info = l1_stream_info->dram_io_info;
    a454:	0886a583          	lw	a1, 136(a3)
/proj_sw/user_dev/jnie/budabackend/src/firmware/riscv/common/dram_stream_intf.cc:1180
        uint32_t num_dram_io_qs = l1_stream_info->num_dram_io_bufs;
    a458:	0866d303          	lhu	t1, 134(a3)
/proj_sw/user_dev/jnie/budabackend/src/firmware/riscv/common/dram_stream_intf.cc:1181
        uint32_t c_dim_size = l1_stream_info->c_dim_size;
    a45c:	05c6df83          	lhu	t6, 92(a3)
stream_get_data_buf_addr(unsigned long):
/proj_sw/user_dev/jnie/budabackend/src/firmware/riscv/wormhole/stream_interface.h:126
  return NOC_STREAM_READ_REG(stream_id, STREAM_BUF_START_REG_INDEX);
    a460:	01872e03          	lw	t3, 24(a4)
stream_get_data_buf_size(unsigned long):
/proj_sw/user_dev/jnie/budabackend/src/firmware/riscv/wormhole/stream_interface.h:134
  return NOC_STREAM_READ_REG(stream_id, STREAM_BUF_SIZE_REG_INDEX);
    a464:	01c72283          	lw	t0, 28(a4)
stream_get_input_noc(unsigned long):
/proj_sw/user_dev/jnie/budabackend/src/firmware/riscv/wormhole/stream_interface.h:98
  return NOC_STREAM_READ_REG_FIELD(stream_id, STREAM_MISC_CFG_REG_INDEX, INCOMING_DATA_NOC);
    a468:	02872703          	lw	a4, 40(a4)
risc_dram_stream_handler_init_l1(void*, unsigned long volatile&, unsigned long volatile&, unsigned long&, unsigned long&, unsigned long&, unsigned long&, unsigned long&, dram_q_state_t* rvtt_l1_ptr, dram_input_stream_state_t*, dram_output_stream_state_t*, active_stream_info_t* rvtt_l1_ptr, epoch_stream_info_t* rvtt_l1_ptr* rvtt_l1_ptr, active_stream_info_t** rvtt_l1_ptr):
/proj_sw/user_dev/jnie/budabackend/src/firmware/riscv/common/dram_stream_intf.cc:1188
        uint32_t transaction_id = NCRISC_RD_START_TRID + num_dram_input_streams;
    a46c:	c1442883          	lw	a7, -1004(s0)
/proj_sw/user_dev/jnie/budabackend/src/firmware/riscv/common/dram_stream_intf.cc:1184
        uint32_t stream_buf_addr_byte = stream_get_data_buf_addr(stream_id) * MEM_WORD_WIDTH;
    a470:	004e1e13          	slli	t3, t3, 0x4
/proj_sw/user_dev/jnie/budabackend/src/firmware/riscv/common/dram_stream_intf.cc:1189
        while (transaction_id > NCRISC_RD_END_TRID)
    a474:	00d00813          	li	a6, 13
stream_get_input_noc(unsigned long):
/proj_sw/user_dev/jnie/budabackend/src/firmware/riscv/wormhole/stream_interface.h:98
    a478:	00177713          	andi	a4, a4, 1
risc_dram_stream_handler_init_l1(void*, unsigned long volatile&, unsigned long volatile&, unsigned long&, unsigned long&, unsigned long&, unsigned long&, unsigned long&, dram_q_state_t* rvtt_l1_ptr, dram_input_stream_state_t*, dram_output_stream_state_t*, active_stream_info_t* rvtt_l1_ptr, epoch_stream_info_t* rvtt_l1_ptr* rvtt_l1_ptr, active_stream_info_t** rvtt_l1_ptr):
/proj_sw/user_dev/jnie/budabackend/src/firmware/riscv/common/dram_stream_intf.cc:1179
        volatile dram_io_state_t tt_l1_ptr * l1_dram_io_state = l1_dram_io_info->dram_io_state;
    a47c:	01c5a603          	lw	a2, 28(a1)
/proj_sw/user_dev/jnie/budabackend/src/firmware/riscv/common/dram_stream_intf.cc:1182
        uint32_t q_slot_size_bytes = l1_dram_io_info->dram_q_slot_size_bytes;
    a480:	0005ae83          	lw	t4, 0(a1)
/proj_sw/user_dev/jnie/budabackend/src/firmware/riscv/common/dram_stream_intf.cc:1183
        uint32_t epoch_q_slots_remaining = l1_dram_io_info->epoch_q_slots_remaining;
    a484:	0145af03          	lw	t5, 20(a1)
/proj_sw/user_dev/jnie/budabackend/src/firmware/riscv/common/dram_stream_intf.cc:1188
        uint32_t transaction_id = NCRISC_RD_START_TRID + num_dram_input_streams;
    a488:	00488593          	addi	a1, a7, 4 # ffb20004 <TENSIX_MAILBOX_BASE+0xffc60004>
/proj_sw/user_dev/jnie/budabackend/src/firmware/riscv/common/dram_stream_intf.cc:1189
        while (transaction_id > NCRISC_RD_END_TRID)
    a48c:	00b87e63          	bgeu	a6, a1, a4a8 <risc_dram_stream_handler_init_l1(void*, unsigned long volatile&, unsigned long volatile&, unsigned long&, unsigned long&, unsigned long&, unsigned long&, unsigned long&, dram_q_state_t* rvtt_l1_ptr, dram_input_stream_state_t*, dram_output_stream_state_t*, active_stream_info_t* rvtt_l1_ptr, epoch_stream_info_t* rvtt_l1_ptr* rvtt_l1_ptr, active_stream_info_t** rvtt_l1_ptr) [clone .constprop.0]+0x474>
/proj_sw/user_dev/jnie/budabackend/src/firmware/riscv/common/dram_stream_intf.cc:1190
          transaction_id -= NCRISC_RD_END_TRID-NCRISC_RD_START_TRID+1;
    a490:	ff658593          	addi	a1, a1, -10
    a494:	ff9ff06f          	j	a48c <risc_dram_stream_handler_init_l1(void*, unsigned long volatile&, unsigned long volatile&, unsigned long&, unsigned long&, unsigned long&, unsigned long&, unsigned long&, dram_q_state_t* rvtt_l1_ptr, dram_input_stream_state_t*, dram_output_stream_state_t*, active_stream_info_t* rvtt_l1_ptr, epoch_stream_info_t* rvtt_l1_ptr* rvtt_l1_ptr, active_stream_info_t** rvtt_l1_ptr) [clone .constprop.0]+0x458>
/proj_sw/user_dev/jnie/budabackend/src/firmware/riscv/common/dram_stream_intf.cc:1170
        for (uint32_t k = 0; k < EPOCH_MAX_OUTPUT_FORKS; k++) {
    a498:	00158593          	addi	a1, a1, 1
    a49c:	00180813          	addi	a6, a6, 1
